---
triple:          'arm64-apple-darwin'
binary-path:     '/Users/allanyin/cs/ds+algorithms/DailyLeetcode/bin/ArithematicSlices2'
relocations:
  - { offsetInCU: 0x5C, offset: 0x5C, size: 0x8, addend: 0x0, symName: __ZNSt3__1L19piecewise_constructE, symObjAddr: 0x54B3, symBinAddr: 0x100007B3F, symSize: 0x0 }
  - { offsetInCU: 0x60CE, offset: 0x60CE, size: 0x8, addend: 0x0, symName: __ZNSt3__122__make_exception_guardB7v160006INS_6vectorIiNS_9allocatorIiEEE16__destroy_vectorEEENS_28__exception_guard_exceptionsIT_EES7_, symObjAddr: 0x480, symBinAddr: 0x100002980, symSize: 0x40 }
  - { offsetInCU: 0x6103, offset: 0x6103, size: 0x8, addend: 0x0, symName: __ZNSt3__119__debug_db_insert_cB7v160006INS_6vectorIiNS_9allocatorIiEEEEEEvPT_, symObjAddr: 0x4F4, symBinAddr: 0x1000029F4, symSize: 0x10 }
  - { offsetInCU: 0x6134, offset: 0x6134, size: 0x8, addend: 0x0, symName: __ZNSt3__119__allocate_at_leastB7v160006INS_9allocatorIiEEEENS_19__allocation_resultINS_16allocator_traitsIT_E7pointerEEERS5_m, symObjAddr: 0x890, symBinAddr: 0x100002D90, symSize: 0x40 }
  - { offsetInCU: 0x6177, offset: 0x6177, size: 0x8, addend: 0x0, symName: __ZNSt3__13minB7v160006ImEERKT_S3_S3_, symObjAddr: 0x9CC, symBinAddr: 0x100002ECC, symSize: 0x2C }
  - { offsetInCU: 0x63A4, offset: 0x63A4, size: 0x8, addend: 0x0, symName: __ZNSt3__13minB7v160006ImNS_6__lessImmEEEERKT_S5_S5_T0_, symObjAddr: 0xA68, symBinAddr: 0x100002F68, symSize: 0x54 }
  - { offsetInCU: 0x6439, offset: 0x6439, size: 0x8, addend: 0x0, symName: __ZNSt3__120__throw_length_errorB7v160006EPKc, symObjAddr: 0xB4C, symBinAddr: 0x10000304C, symSize: 0x64 }
  - { offsetInCU: 0x6461, offset: 0x6461, size: 0x8, addend: 0x0, symName: __ZNSt3__117__libcpp_allocateB7v160006Emm, symObjAddr: 0xCBC, symBinAddr: 0x1000031BC, symSize: 0x60 }
  - { offsetInCU: 0x64BB, offset: 0x64BB, size: 0x8, addend: 0x0, symName: __ZNSt3__124__is_overaligned_for_newB7v160006Em, symObjAddr: 0xD1C, symBinAddr: 0x10000321C, symSize: 0x20 }
  - { offsetInCU: 0x64E9, offset: 0x64E9, size: 0x8, addend: 0x0, symName: __ZNSt3__121__libcpp_operator_newB7v160006IJmSt11align_val_tEEEPvDpT_, symObjAddr: 0xD3C, symBinAddr: 0x10000323C, symSize: 0x2C }
  - { offsetInCU: 0x6536, offset: 0x6536, size: 0x8, addend: 0x0, symName: __ZNSt3__121__libcpp_operator_newB7v160006IJmEEEPvDpT_, symObjAddr: 0xD68, symBinAddr: 0x100003268, symSize: 0x24 }
  - { offsetInCU: 0x656F, offset: 0x656F, size: 0x8, addend: 0x0, symName: __ZNSt3__112__to_addressB7v160006IiEEPT_S2_, symObjAddr: 0xE84, symBinAddr: 0x100003384, symSize: 0x14 }
  - { offsetInCU: 0x65A4, offset: 0x65A4, size: 0x8, addend: 0x0, symName: __ZNSt3__130__uninitialized_allocator_copyB7v160006INS_9allocatorIiEEiiLPv0EEEPT0_RT_PKS4_S9_S5_, symObjAddr: 0xF34, symBinAddr: 0x100003434, symSize: 0x38 }
  - { offsetInCU: 0x661C, offset: 0x661C, size: 0x8, addend: 0x0, symName: __ZNSt3__14copyB7v160006IPKiPiEET0_T_S5_S4_, symObjAddr: 0xFDC, symBinAddr: 0x1000034DC, symSize: 0x40 }
  - { offsetInCU: 0x6676, offset: 0x6676, size: 0x8, addend: 0x0, symName: __ZNSt3__16__copyB7v160006INS_17_ClassicAlgPolicyEPKiS3_PiEENS_4pairIT0_T2_EES6_T1_S7_, symObjAddr: 0x101C, symBinAddr: 0x10000351C, symSize: 0x44 }
  - { offsetInCU: 0x66E2, offset: 0x66E2, size: 0x8, addend: 0x0, symName: __ZNSt3__123__dispatch_copy_or_moveB7v160006INS_17_ClassicAlgPolicyENS_11__copy_loopIS1_EENS_14__copy_trivialEPKiS6_PiEENS_4pairIT2_T4_EES9_T3_SA_, symObjAddr: 0x1060, symBinAddr: 0x100003560, symSize: 0x44 }
  - { offsetInCU: 0x6760, offset: 0x6760, size: 0x8, addend: 0x0, symName: __ZNSt3__121__unwrap_and_dispatchB7v160006INS_10__overloadINS_11__copy_loopINS_17_ClassicAlgPolicyEEENS_14__copy_trivialEEEPKiS8_PiLi0EEENS_4pairIT0_T2_EESB_T1_SC_, symObjAddr: 0x10A4, symBinAddr: 0x1000035A4, symSize: 0xB4 }
  - { offsetInCU: 0x67EE, offset: 0x67EE, size: 0x8, addend: 0x0, symName: __ZNSt3__114__unwrap_rangeB7v160006IPKiS2_EEDaT_T0_, symObjAddr: 0x1158, symBinAddr: 0x100003658, symSize: 0x3C }
  - { offsetInCU: 0x6983, offset: 0x6983, size: 0x8, addend: 0x0, symName: __ZNSt3__113__unwrap_iterB7v160006IPiNS_18__unwrap_iter_implIS1_Lb1EEELi0EEEDTclsrT0_8__unwrapclsr3stdE7declvalIT_EEEES5_, symObjAddr: 0x11DC, symBinAddr: 0x1000036DC, symSize: 0x24 }
  - { offsetInCU: 0x69C7, offset: 0x69C7, size: 0x8, addend: 0x0, symName: __ZNSt3__19make_pairB7v160006IPKiPiEENS_4pairINS_18__unwrap_ref_decayIT_E4typeENS5_IT0_E4typeEEEOS6_OS9_, symObjAddr: 0x1200, symBinAddr: 0x100003700, symSize: 0x38 }
  - { offsetInCU: 0x6A16, offset: 0x6A16, size: 0x8, addend: 0x0, symName: __ZNSt3__114__rewrap_rangeB7v160006IPKiS2_S2_EET0_S3_T1_, symObjAddr: 0x1238, symBinAddr: 0x100003738, symSize: 0x2C }
  - { offsetInCU: 0x6A6B, offset: 0x6A6B, size: 0x8, addend: 0x0, symName: __ZNSt3__113__rewrap_iterB7v160006IPiS1_NS_18__unwrap_iter_implIS1_Lb1EEEEET_S4_T0_, symObjAddr: 0x1264, symBinAddr: 0x100003764, symSize: 0x3C }
  - { offsetInCU: 0x6BDC, offset: 0x6BDC, size: 0x8, addend: 0x0, symName: __ZNSt3__113__unwrap_iterB7v160006IPKiNS_18__unwrap_iter_implIS2_Lb1EEELi0EEEDTclsrT0_8__unwrapclsr3stdE7declvalIT_EEEES6_, symObjAddr: 0x12F8, symBinAddr: 0x1000037F8, symSize: 0x24 }
  - { offsetInCU: 0x6C73, offset: 0x6C73, size: 0x8, addend: 0x0, symName: __ZNSt3__112__to_addressB7v160006IKiEEPT_S3_, symObjAddr: 0x137C, symBinAddr: 0x10000387C, symSize: 0x14 }
  - { offsetInCU: 0x6CA8, offset: 0x6CA8, size: 0x8, addend: 0x0, symName: __ZNSt3__119__copy_trivial_implB7v160006IKiiEENS_4pairIPT_PT0_EES4_S4_S6_, symObjAddr: 0x13C4, symBinAddr: 0x1000038C4, symSize: 0x84 }
  - { offsetInCU: 0x6D10, offset: 0x6D10, size: 0x8, addend: 0x0, symName: __ZNSt3__19make_pairB7v160006IRPKiPiEENS_4pairINS_18__unwrap_ref_decayIT_E4typeENS6_IT0_E4typeEEEOS7_OSA_, symObjAddr: 0x1448, symBinAddr: 0x100003948, symSize: 0x38 }
  - { offsetInCU: 0x6DB2, offset: 0x6DB2, size: 0x8, addend: 0x0, symName: __ZNSt3__113__rewrap_iterB7v160006IPKiS2_NS_18__unwrap_iter_implIS2_Lb1EEEEET_S5_T0_, symObjAddr: 0x15B0, symBinAddr: 0x100003AB0, symSize: 0x3C }
  - { offsetInCU: 0x6E07, offset: 0x6E07, size: 0x8, addend: 0x0, symName: __ZNSt3__118__debug_db_erase_cB7v160006INS_6vectorIiNS_9allocatorIiEEEEEEvPT_, symObjAddr: 0x1850, symBinAddr: 0x100003D50, symSize: 0x10 }
  - { offsetInCU: 0x6E38, offset: 0x6E38, size: 0x8, addend: 0x0, symName: __ZNSt3__110destroy_atB7v160006IiLi0EEEvPT_, symObjAddr: 0x1998, symBinAddr: 0x100003E98, symSize: 0x24 }
  - { offsetInCU: 0x6E6F, offset: 0x6E6F, size: 0x8, addend: 0x0, symName: __ZNSt3__112__destroy_atB7v160006IiLi0EEEvPT_, symObjAddr: 0x19BC, symBinAddr: 0x100003EBC, symSize: 0x10 }
  - { offsetInCU: 0x6EA6, offset: 0x6EA6, size: 0x8, addend: 0x0, symName: __ZNSt3__119__libcpp_deallocateB7v160006EPvmm, symObjAddr: 0x1A0C, symBinAddr: 0x100003F0C, symSize: 0x60 }
  - { offsetInCU: 0x6F0B, offset: 0x6F0B, size: 0x8, addend: 0x0, symName: __ZNSt3__127__do_deallocate_handle_sizeB7v160006IJSt11align_val_tEEEvPvmDpT_, symObjAddr: 0x1A6C, symBinAddr: 0x100003F6C, symSize: 0x30 }
  - { offsetInCU: 0x6F5E, offset: 0x6F5E, size: 0x8, addend: 0x0, symName: __ZNSt3__127__do_deallocate_handle_sizeB7v160006IJEEEvPvmDpT_, symObjAddr: 0x1A9C, symBinAddr: 0x100003F9C, symSize: 0x28 }
  - { offsetInCU: 0x6F9C, offset: 0x6F9C, size: 0x8, addend: 0x0, symName: __ZNSt3__124__libcpp_operator_deleteB7v160006IJPvSt11align_val_tEEEvDpT_, symObjAddr: 0x1AC4, symBinAddr: 0x100003FC4, symSize: 0x2C }
  - { offsetInCU: 0x6FE5, offset: 0x6FE5, size: 0x8, addend: 0x0, symName: __ZNSt3__124__libcpp_operator_deleteB7v160006IJPvEEEvDpT_, symObjAddr: 0x1AF0, symBinAddr: 0x100003FF0, symSize: 0x24 }
  - { offsetInCU: 0x701A, offset: 0x701A, size: 0x8, addend: 0x0, symName: __ZNSt3__122__make_exception_guardB7v160006INS_6vectorINS_13unordered_mapIxxNS_4hashIxEENS_8equal_toIxEENS_9allocatorINS_4pairIKxxEEEEEENS7_ISC_EEE16__destroy_vectorEEENS_28__exception_guard_exceptionsIT_EESH_, symObjAddr: 0x1D60, symBinAddr: 0x100004260, symSize: 0x40 }
  - { offsetInCU: 0x704F, offset: 0x704F, size: 0x8, addend: 0x0, symName: __ZNSt3__119__debug_db_insert_cB7v160006INS_6vectorINS_13unordered_mapIxxNS_4hashIxEENS_8equal_toIxEENS_9allocatorINS_4pairIKxxEEEEEENS7_ISC_EEEEEEvPT_, symObjAddr: 0x1DD4, symBinAddr: 0x1000042D4, symSize: 0x10 }
  - { offsetInCU: 0x7080, offset: 0x7080, size: 0x8, addend: 0x0, symName: __ZNSt3__119__allocate_at_leastB7v160006INS_9allocatorINS_13unordered_mapIxxNS_4hashIxEENS_8equal_toIxEENS1_INS_4pairIKxxEEEEEEEEEENS_19__allocation_resultINS_16allocator_traitsIT_E7pointerEEERSF_m, symObjAddr: 0x2164, symBinAddr: 0x100004664, symSize: 0x40 }
  - { offsetInCU: 0x70C3, offset: 0x70C3, size: 0x8, addend: 0x0, symName: __ZNSt3__112__to_addressB7v160006INS_13unordered_mapIxxNS_4hashIxEENS_8equal_toIxEENS_9allocatorINS_4pairIKxxEEEEEEEEPT_SD_, symObjAddr: 0x2498, symBinAddr: 0x100004998, symSize: 0x14 }
  - { offsetInCU: 0x711D, offset: 0x711D, size: 0x8, addend: 0x0, symName: __ZNSt3__112construct_atB7v160006INS_13unordered_mapIxxNS_4hashIxEENS_8equal_toIxEENS_9allocatorINS_4pairIKxxEEEEEEJEPSB_EEPT_SE_DpOT0_, symObjAddr: 0x25E8, symBinAddr: 0x100004AE8, symSize: 0x34 }
  - { offsetInCU: 0x7179, offset: 0x7179, size: 0x8, addend: 0x0, symName: __ZNSt3__119__debug_db_insert_cB7v160006INS_13unordered_mapIxxNS_4hashIxEENS_8equal_toIxEENS_9allocatorINS_4pairIKxxEEEEEEEEvPT_, symObjAddr: 0x26B0, symBinAddr: 0x100004BB0, symSize: 0x10 }
  - { offsetInCU: 0x71AA, offset: 0x71AA, size: 0x8, addend: 0x0, symName: __ZNSt3__118__debug_db_erase_cB7v160006INS_6vectorINS_13unordered_mapIxxNS_4hashIxEENS_8equal_toIxEENS_9allocatorINS_4pairIKxxEEEEEENS7_ISC_EEEEEEvPT_, symObjAddr: 0x2E94, symBinAddr: 0x100005394, symSize: 0x10 }
  - { offsetInCU: 0x71DB, offset: 0x71DB, size: 0x8, addend: 0x0, symName: __ZNSt3__110destroy_atB7v160006INS_13unordered_mapIxxNS_4hashIxEENS_8equal_toIxEENS_9allocatorINS_4pairIKxxEEEEEELi0EEEvPT_, symObjAddr: 0x2FDC, symBinAddr: 0x1000054DC, symSize: 0x24 }
  - { offsetInCU: 0x7212, offset: 0x7212, size: 0x8, addend: 0x0, symName: __ZNSt3__112__destroy_atB7v160006INS_13unordered_mapIxxNS_4hashIxEENS_8equal_toIxEENS_9allocatorINS_4pairIKxxEEEEEELi0EEEvPT_, symObjAddr: 0x3000, symBinAddr: 0x100005500, symSize: 0x24 }
  - { offsetInCU: 0x7249, offset: 0x7249, size: 0x8, addend: 0x0, symName: __ZNSt3__118__debug_db_erase_cB7v160006INS_12__hash_tableINS_17__hash_value_typeIxxEENS_22__unordered_map_hasherIxS3_NS_4hashIxEENS_8equal_toIxEELb1EEENS_21__unordered_map_equalIxS3_S8_S6_Lb1EEENS_9allocatorIS3_EEEEEEvPT_, symObjAddr: 0x31CC, symBinAddr: 0x1000056CC, symSize: 0x10 }
  - { offsetInCU: 0x72AD, offset: 0x72AD, size: 0x8, addend: 0x0, symName: __ZNSt3__110destroy_atB7v160006INS_4pairIKxxEELi0EEEvPT_, symObjAddr: 0x3320, symBinAddr: 0x100005820, symSize: 0x24 }
  - { offsetInCU: 0x72E4, offset: 0x72E4, size: 0x8, addend: 0x0, symName: __ZNSt3__112__destroy_atB7v160006INS_4pairIKxxEELi0EEEvPT_, symObjAddr: 0x3344, symBinAddr: 0x100005844, symSize: 0x10 }
  - { offsetInCU: 0x731B, offset: 0x731B, size: 0x8, addend: 0x0, symName: __ZNSt3__17launderB7v160006INS_4pairIKxxEEEEPT_S5_, symObjAddr: 0x3378, symBinAddr: 0x100005878, symSize: 0x24 }
  - { offsetInCU: 0x7352, offset: 0x7352, size: 0x8, addend: 0x0, symName: __ZNSt3__19__launderB7v160006INS_4pairIKxxEEEEPT_S5_, symObjAddr: 0x339C, symBinAddr: 0x10000589C, symSize: 0x14 }
  - { offsetInCU: 0x73C0, offset: 0x73C0, size: 0x8, addend: 0x0, symName: __ZNSt3__116forward_as_tupleB7v160006IJRKxEEENS_5tupleIJDpOT_EEES6_, symObjAddr: 0x3BAC, symBinAddr: 0x1000060AC, symSize: 0x2C }
  - { offsetInCU: 0x73F9, offset: 0x73F9, size: 0x8, addend: 0x0, symName: __ZNSt3__116forward_as_tupleB7v160006IJEEENS_5tupleIJDpOT_EEES4_, symObjAddr: 0x3BD8, symBinAddr: 0x1000060D8, symSize: 0x4 }
  - { offsetInCU: 0x741D, offset: 0x741D, size: 0x8, addend: 0x0, symName: __ZNSt3__116__constrain_hashB7v160006Emm, symObjAddr: 0x3C8C, symBinAddr: 0x10000618C, symSize: 0x98 }
  - { offsetInCU: 0x7457, offset: 0x7457, size: 0x8, addend: 0x0, symName: __ZNSt3__13maxB7v160006ImEERKT_S3_S3_, symObjAddr: 0x3FAC, symBinAddr: 0x1000064AC, symSize: 0x2C }
  - { offsetInCU: 0x749A, offset: 0x749A, size: 0x8, addend: 0x0, symName: __ZNSt3__116__is_hash_power2B7v160006Em, symObjAddr: 0x3FD8, symBinAddr: 0x1000064D8, symSize: 0x50 }
  - { offsetInCU: 0x74C6, offset: 0x74C6, size: 0x8, addend: 0x0, symName: __ZNSt3__17launderB7v160006IKNS_4pairIKxxEEEEPT_S6_, symObjAddr: 0x437C, symBinAddr: 0x10000687C, symSize: 0x24 }
  - { offsetInCU: 0x74FD, offset: 0x74FD, size: 0x8, addend: 0x0, symName: __ZNSt3__19__launderB7v160006IKNS_4pairIKxxEEEEPT_S6_, symObjAddr: 0x43A0, symBinAddr: 0x1000068A0, symSize: 0x14 }
  - { offsetInCU: 0x7577, offset: 0x7577, size: 0x8, addend: 0x0, symName: __ZNSt3__112construct_atB7v160006INS_4pairIKxxEEJRKNS_21piecewise_construct_tENS_5tupleIJRS2_EEENS7_IJEEEEPS3_EEPT_SD_DpOT0_, symObjAddr: 0x4694, symBinAddr: 0x100006B94, symSize: 0x50 }
  - { offsetInCU: 0x7618, offset: 0x7618, size: 0x8, addend: 0x0, symName: __ZNSt3__13getB7v160006ILm0EJRKxEEERNS_13tuple_elementIXT_ENS_5tupleIJDpT0_EEEE4typeERS7_, symObjAddr: 0x47AC, symBinAddr: 0x100006CAC, symSize: 0x24 }
  - { offsetInCU: 0x765B, offset: 0x765B, size: 0x8, addend: 0x0, symName: __ZNSt3__116__next_hash_pow2B7v160006Em, symObjAddr: 0x4CB8, symBinAddr: 0x1000071B8, symSize: 0x6C }
  - { offsetInCU: 0x7687, offset: 0x7687, size: 0x8, addend: 0x0, symName: __ZNSt3__125__debug_db_invalidate_allB7v160006INS_12__hash_tableINS_17__hash_value_typeIxxEENS_22__unordered_map_hasherIxS3_NS_4hashIxEENS_8equal_toIxEELb1EEENS_21__unordered_map_equalIxS3_S8_S6_Lb1EEENS_9allocatorIS3_EEEEEEvPT_, symObjAddr: 0x4D24, symBinAddr: 0x100007224, symSize: 0x10 }
  - { offsetInCU: 0x76D4, offset: 0x76D4, size: 0x8, addend: 0x0, symName: __ZNSt3__112__libcpp_clzB7v160006Em, symObjAddr: 0x4E7C, symBinAddr: 0x10000737C, symSize: 0x1C }
  - { offsetInCU: 0x7700, offset: 0x7700, size: 0x8, addend: 0x0, symName: __ZNSt3__13maxB7v160006ImNS_6__lessImmEEEERKT_S5_S5_T0_, symObjAddr: 0x4E98, symBinAddr: 0x100007398, symSize: 0x54 }
  - { offsetInCU: 0x7B06, offset: 0x7B06, size: 0x8, addend: 0x0, symName: __ZSt28__throw_bad_array_new_lengthB7v160006v, symObjAddr: 0xC88, symBinAddr: 0x100003188, symSize: 0x34 }
  - { offsetInCU: 0x962F, offset: 0x962F, size: 0x8, addend: 0x0, symName: _main, symObjAddr: 0x0, symBinAddr: 0x100002500, symSize: 0xC8 }
  - { offsetInCU: 0x9665, offset: 0x9665, size: 0x8, addend: 0x0, symName: __ZNSt3__16vectorIiNS_9allocatorIiEEEC1B7v160006ESt16initializer_listIiE, symObjAddr: 0xC8, symBinAddr: 0x1000025C8, symSize: 0x3C }
  - { offsetInCU: 0x96C8, offset: 0x96C8, size: 0x8, addend: 0x0, symName: __ZN8Solution24numberOfArithmeticSlicesERNSt3__16vectorIiNS0_9allocatorIiEEEE, symObjAddr: 0x104, symBinAddr: 0x100002604, symSize: 0x1F0 }
  - { offsetInCU: 0x9755, offset: 0x9755, size: 0x8, addend: 0x0, symName: __ZNSt3__16vectorIiNS_9allocatorIiEEED1B7v160006Ev, symObjAddr: 0x2F4, symBinAddr: 0x1000027F4, symSize: 0x2C }
  - { offsetInCU: 0x977C, offset: 0x977C, size: 0x8, addend: 0x0, symName: __ZNSt3__16vectorIiNS_9allocatorIiEEEC2B7v160006ESt16initializer_listIiE, symObjAddr: 0x320, symBinAddr: 0x100002820, symSize: 0x124 }
  - { offsetInCU: 0x97D6, offset: 0x97D6, size: 0x8, addend: 0x0, symName: __ZNSt3__117__compressed_pairIPiNS_9allocatorIiEEEC1B7v160006IDnNS_18__default_init_tagEEEOT_OT0_, symObjAddr: 0x444, symBinAddr: 0x100002944, symSize: 0x3C }
  - { offsetInCU: 0x982C, offset: 0x982C, size: 0x8, addend: 0x0, symName: __ZNSt3__16vectorIiNS_9allocatorIiEEE16__destroy_vectorC1ERS3_, symObjAddr: 0x4C0, symBinAddr: 0x1000029C0, symSize: 0x34 }
  - { offsetInCU: 0x9863, offset: 0x9863, size: 0x8, addend: 0x0, symName: __ZNKSt16initializer_listIiE4sizeB7v160006Ev, symObjAddr: 0x504, symBinAddr: 0x100002A04, symSize: 0x18 }
  - { offsetInCU: 0x9887, offset: 0x9887, size: 0x8, addend: 0x0, symName: __ZNSt3__16vectorIiNS_9allocatorIiEEE11__vallocateB7v160006Em, symObjAddr: 0x51C, symBinAddr: 0x100002A1C, symSize: 0xAC }
  - { offsetInCU: 0x98CA, offset: 0x98CA, size: 0x8, addend: 0x0, symName: __ZNSt3__16vectorIiNS_9allocatorIiEEE18__construct_at_endIPKiLi0EEEvT_S7_m, symObjAddr: 0x5C8, symBinAddr: 0x100002AC8, symSize: 0x8C }
  - { offsetInCU: 0x993C, offset: 0x993C, size: 0x8, addend: 0x0, symName: __ZNKSt16initializer_listIiE5beginB7v160006Ev, symObjAddr: 0x654, symBinAddr: 0x100002B54, symSize: 0x18 }
  - { offsetInCU: 0x9961, offset: 0x9961, size: 0x8, addend: 0x0, symName: __ZNKSt16initializer_listIiE3endB7v160006Ev, symObjAddr: 0x66C, symBinAddr: 0x100002B6C, symSize: 0x20 }
  - { offsetInCU: 0x9986, offset: 0x9986, size: 0x8, addend: 0x0, symName: __ZNSt3__128__exception_guard_exceptionsINS_6vectorIiNS_9allocatorIiEEE16__destroy_vectorEE10__completeB7v160006Ev, symObjAddr: 0x68C, symBinAddr: 0x100002B8C, symSize: 0x1C }
  - { offsetInCU: 0x99AB, offset: 0x99AB, size: 0x8, addend: 0x0, symName: __ZNSt3__128__exception_guard_exceptionsINS_6vectorIiNS_9allocatorIiEEE16__destroy_vectorEED1B7v160006Ev, symObjAddr: 0x6A8, symBinAddr: 0x100002BA8, symSize: 0x2C }
  - { offsetInCU: 0x99D3, offset: 0x99D3, size: 0x8, addend: 0x0, symName: __ZNSt3__117__compressed_pairIPiNS_9allocatorIiEEEC2B7v160006IDnNS_18__default_init_tagEEEOT_OT0_, symObjAddr: 0x6D4, symBinAddr: 0x100002BD4, symSize: 0x40 }
  - { offsetInCU: 0x9A29, offset: 0x9A29, size: 0x8, addend: 0x0, symName: __ZNSt3__122__compressed_pair_elemIPiLi0ELb0EEC2B7v160006IDnvEEOT_, symObjAddr: 0x714, symBinAddr: 0x100002C14, symSize: 0x1C }
  - { offsetInCU: 0x9A6A, offset: 0x9A6A, size: 0x8, addend: 0x0, symName: __ZNSt3__122__compressed_pair_elemINS_9allocatorIiEELi1ELb1EEC2B7v160006ENS_18__default_init_tagE, symObjAddr: 0x730, symBinAddr: 0x100002C30, symSize: 0x2C }
  - { offsetInCU: 0x9A9D, offset: 0x9A9D, size: 0x8, addend: 0x0, symName: __ZNSt3__19allocatorIiEC2B7v160006Ev, symObjAddr: 0x75C, symBinAddr: 0x100002C5C, symSize: 0x2C }
  - { offsetInCU: 0x9AC5, offset: 0x9AC5, size: 0x8, addend: 0x0, symName: __ZNSt3__116__non_trivial_ifILb1ENS_9allocatorIiEEEC2B7v160006Ev, symObjAddr: 0x788, symBinAddr: 0x100002C88, symSize: 0x14 }
  - { offsetInCU: 0x9AEE, offset: 0x9AEE, size: 0x8, addend: 0x0, symName: __ZNSt3__128__exception_guard_exceptionsINS_6vectorIiNS_9allocatorIiEEE16__destroy_vectorEEC1B7v160006ES5_, symObjAddr: 0x79C, symBinAddr: 0x100002C9C, symSize: 0x34 }
  - { offsetInCU: 0x9B24, offset: 0x9B24, size: 0x8, addend: 0x0, symName: __ZNSt3__128__exception_guard_exceptionsINS_6vectorIiNS_9allocatorIiEEE16__destroy_vectorEEC2B7v160006ES5_, symObjAddr: 0x7D0, symBinAddr: 0x100002CD0, symSize: 0x24 }
  - { offsetInCU: 0x9B5B, offset: 0x9B5B, size: 0x8, addend: 0x0, symName: __ZNSt3__16vectorIiNS_9allocatorIiEEE16__destroy_vectorC2ERS3_, symObjAddr: 0x7F4, symBinAddr: 0x100002CF4, symSize: 0x20 }
  - { offsetInCU: 0x9B93, offset: 0x9B93, size: 0x8, addend: 0x0, symName: __ZNKSt3__16vectorIiNS_9allocatorIiEEE8max_sizeEv, symObjAddr: 0x814, symBinAddr: 0x100002D14, symSize: 0x60 }
  - { offsetInCU: 0x9BB9, offset: 0x9BB9, size: 0x8, addend: 0x0, symName: __ZNKSt3__16vectorIiNS_9allocatorIiEEE20__throw_length_errorB7v160006Ev, symObjAddr: 0x874, symBinAddr: 0x100002D74, symSize: 0x1C }
  - { offsetInCU: 0x9BDD, offset: 0x9BDD, size: 0x8, addend: 0x0, symName: __ZNSt3__16vectorIiNS_9allocatorIiEEE7__allocB7v160006Ev, symObjAddr: 0x8D0, symBinAddr: 0x100002DD0, symSize: 0x28 }
  - { offsetInCU: 0x9C01, offset: 0x9C01, size: 0x8, addend: 0x0, symName: __ZNSt3__16vectorIiNS_9allocatorIiEEE9__end_capB7v160006Ev, symObjAddr: 0x8F8, symBinAddr: 0x100002DF8, symSize: 0x28 }
  - { offsetInCU: 0x9C25, offset: 0x9C25, size: 0x8, addend: 0x0, symName: __ZNKSt3__16vectorIiNS_9allocatorIiEEE14__annotate_newB7v160006Em, symObjAddr: 0x920, symBinAddr: 0x100002E20, symSize: 0xAC }
  - { offsetInCU: 0x9C63, offset: 0x9C63, size: 0x8, addend: 0x0, symName: __ZNSt3__116allocator_traitsINS_9allocatorIiEEE8max_sizeB7v160006IS2_vvEEmRKS2_, symObjAddr: 0x9F8, symBinAddr: 0x100002EF8, symSize: 0x28 }
  - { offsetInCU: 0x9C8D, offset: 0x9C8D, size: 0x8, addend: 0x0, symName: __ZNKSt3__16vectorIiNS_9allocatorIiEEE7__allocB7v160006Ev, symObjAddr: 0xA20, symBinAddr: 0x100002F20, symSize: 0x28 }
  - { offsetInCU: 0x9CB2, offset: 0x9CB2, size: 0x8, addend: 0x0, symName: __ZNSt3__114numeric_limitsIlE3maxB7v160006Ev, symObjAddr: 0xA48, symBinAddr: 0x100002F48, symSize: 0x14 }
  - { offsetInCU: 0x9CD0, offset: 0x9CD0, size: 0x8, addend: 0x0, symName: __ZNKSt3__16__lessImmEclB7v160006ERKmS3_, symObjAddr: 0xABC, symBinAddr: 0x100002FBC, symSize: 0x34 }
  - { offsetInCU: 0x9D11, offset: 0x9D11, size: 0x8, addend: 0x0, symName: __ZNSt3__114numeric_limitsImE3maxB7v160006Ev, symObjAddr: 0xAF0, symBinAddr: 0x100002FF0, symSize: 0x14 }
  - { offsetInCU: 0x9D25, offset: 0x9D25, size: 0x8, addend: 0x0, symName: __ZNSt3__123__libcpp_numeric_limitsImLb1EE3maxB7v160006Ev, symObjAddr: 0xB04, symBinAddr: 0x100003004, symSize: 0x8 }
  - { offsetInCU: 0x9D38, offset: 0x9D38, size: 0x8, addend: 0x0, symName: __ZNKSt3__117__compressed_pairIPiNS_9allocatorIiEEE6secondB7v160006Ev, symObjAddr: 0xB0C, symBinAddr: 0x10000300C, symSize: 0x24 }
  - { offsetInCU: 0x9D5D, offset: 0x9D5D, size: 0x8, addend: 0x0, symName: __ZNKSt3__122__compressed_pair_elemINS_9allocatorIiEELi1ELb1EE5__getB7v160006Ev, symObjAddr: 0xB30, symBinAddr: 0x100003030, symSize: 0x14 }
  - { offsetInCU: 0x9D82, offset: 0x9D82, size: 0x8, addend: 0x0, symName: __ZNSt3__123__libcpp_numeric_limitsIlLb1EE3maxB7v160006Ev, symObjAddr: 0xB44, symBinAddr: 0x100003044, symSize: 0x8 }
  - { offsetInCU: 0x9D96, offset: 0x9D96, size: 0x8, addend: 0x0, symName: __ZNSt12length_errorC1B7v160006EPKc, symObjAddr: 0xBB0, symBinAddr: 0x1000030B0, symSize: 0x34 }
  - { offsetInCU: 0x9DCC, offset: 0x9DCC, size: 0x8, addend: 0x0, symName: __ZNSt12length_errorC2B7v160006EPKc, symObjAddr: 0xBE4, symBinAddr: 0x1000030E4, symSize: 0x4C }
  - { offsetInCU: 0x9E01, offset: 0x9E01, size: 0x8, addend: 0x0, symName: __ZNSt3__19allocatorIiE8allocateB7v160006Em, symObjAddr: 0xC30, symBinAddr: 0x100003130, symSize: 0x58 }
  - { offsetInCU: 0x9E33, offset: 0x9E33, size: 0x8, addend: 0x0, symName: __ZNSt3__117__compressed_pairIPiNS_9allocatorIiEEE6secondB7v160006Ev, symObjAddr: 0xD8C, symBinAddr: 0x10000328C, symSize: 0x24 }
  - { offsetInCU: 0x9E58, offset: 0x9E58, size: 0x8, addend: 0x0, symName: __ZNSt3__122__compressed_pair_elemINS_9allocatorIiEELi1ELb1EE5__getB7v160006Ev, symObjAddr: 0xDB0, symBinAddr: 0x1000032B0, symSize: 0x14 }
  - { offsetInCU: 0x9E7C, offset: 0x9E7C, size: 0x8, addend: 0x0, symName: __ZNSt3__117__compressed_pairIPiNS_9allocatorIiEEE5firstB7v160006Ev, symObjAddr: 0xDC4, symBinAddr: 0x1000032C4, symSize: 0x24 }
  - { offsetInCU: 0x9EA1, offset: 0x9EA1, size: 0x8, addend: 0x0, symName: __ZNSt3__122__compressed_pair_elemIPiLi0ELb0EE5__getB7v160006Ev, symObjAddr: 0xDE8, symBinAddr: 0x1000032E8, symSize: 0x14 }
  - { offsetInCU: 0x9EC6, offset: 0x9EC6, size: 0x8, addend: 0x0, symName: __ZNKSt3__16vectorIiNS_9allocatorIiEEE31__annotate_contiguous_containerB7v160006EPKvS5_S5_S5_, symObjAddr: 0xDFC, symBinAddr: 0x1000032FC, symSize: 0x20 }
  - { offsetInCU: 0x9F16, offset: 0x9F16, size: 0x8, addend: 0x0, symName: __ZNKSt3__16vectorIiNS_9allocatorIiEEE4dataB7v160006Ev, symObjAddr: 0xE1C, symBinAddr: 0x10000331C, symSize: 0x28 }
  - { offsetInCU: 0x9F3A, offset: 0x9F3A, size: 0x8, addend: 0x0, symName: __ZNKSt3__16vectorIiNS_9allocatorIiEEE8capacityB7v160006Ev, symObjAddr: 0xE44, symBinAddr: 0x100003344, symSize: 0x40 }
  - { offsetInCU: 0x9F5E, offset: 0x9F5E, size: 0x8, addend: 0x0, symName: __ZNKSt3__16vectorIiNS_9allocatorIiEEE9__end_capB7v160006Ev, symObjAddr: 0xE98, symBinAddr: 0x100003398, symSize: 0x28 }
  - { offsetInCU: 0x9F82, offset: 0x9F82, size: 0x8, addend: 0x0, symName: __ZNKSt3__117__compressed_pairIPiNS_9allocatorIiEEE5firstB7v160006Ev, symObjAddr: 0xEC0, symBinAddr: 0x1000033C0, symSize: 0x24 }
  - { offsetInCU: 0x9FA7, offset: 0x9FA7, size: 0x8, addend: 0x0, symName: __ZNKSt3__122__compressed_pair_elemIPiLi0ELb0EE5__getB7v160006Ev, symObjAddr: 0xEE4, symBinAddr: 0x1000033E4, symSize: 0x14 }
  - { offsetInCU: 0x9FE5, offset: 0x9FE5, size: 0x8, addend: 0x0, symName: __ZNSt3__16vectorIiNS_9allocatorIiEEE21_ConstructTransactionC1B7v160006ERS3_m, symObjAddr: 0xEF8, symBinAddr: 0x1000033F8, symSize: 0x3C }
  - { offsetInCU: 0xA02B, offset: 0xA02B, size: 0x8, addend: 0x0, symName: __ZNSt3__16vectorIiNS_9allocatorIiEEE21_ConstructTransactionD1B7v160006Ev, symObjAddr: 0xF6C, symBinAddr: 0x10000346C, symSize: 0x2C }
  - { offsetInCU: 0xA053, offset: 0xA053, size: 0x8, addend: 0x0, symName: __ZNSt3__16vectorIiNS_9allocatorIiEEE21_ConstructTransactionC2B7v160006ERS3_m, symObjAddr: 0xF98, symBinAddr: 0x100003498, symSize: 0x44 }
  - { offsetInCU: 0xA0BC, offset: 0xA0BC, size: 0x8, addend: 0x0, symName: __ZNKSt3__114__copy_trivialclB7v160006IKiiLi0EEENS_4pairIPT_PT0_EES5_S5_S7_, symObjAddr: 0x1194, symBinAddr: 0x100003694, symSize: 0x48 }
  - { offsetInCU: 0xA13C, offset: 0xA13C, size: 0x8, addend: 0x0, symName: __ZNSt3__119__unwrap_range_implIPKiS2_E8__unwrapB7v160006ES2_S2_, symObjAddr: 0x12A0, symBinAddr: 0x1000037A0, symSize: 0x58 }
  - { offsetInCU: 0xA172, offset: 0xA172, size: 0x8, addend: 0x0, symName: __ZNSt3__14pairIPKiS2_EC1B7v160006IS2_S2_LPv0EEEOT_OT0_, symObjAddr: 0x131C, symBinAddr: 0x10000381C, symSize: 0x3C }
  - { offsetInCU: 0xA1CE, offset: 0xA1CE, size: 0x8, addend: 0x0, symName: __ZNSt3__118__unwrap_iter_implIPKiLb1EE8__unwrapB7v160006ES2_, symObjAddr: 0x1358, symBinAddr: 0x100003858, symSize: 0x24 }
  - { offsetInCU: 0xA1F1, offset: 0xA1F1, size: 0x8, addend: 0x0, symName: __ZNSt3__14pairIPKiS2_EC2B7v160006IS2_S2_LPv0EEEOT_OT0_, symObjAddr: 0x1390, symBinAddr: 0x100003890, symSize: 0x34 }
  - { offsetInCU: 0xA258, offset: 0xA258, size: 0x8, addend: 0x0, symName: __ZNSt3__14pairIPKiPiEC1B7v160006IRS2_S3_LPv0EEEOT_OT0_, symObjAddr: 0x1480, symBinAddr: 0x100003980, symSize: 0x3C }
  - { offsetInCU: 0xA2B4, offset: 0xA2B4, size: 0x8, addend: 0x0, symName: __ZNSt3__14pairIPKiPiEC2B7v160006IRS2_S3_LPv0EEEOT_OT0_, symObjAddr: 0x14BC, symBinAddr: 0x1000039BC, symSize: 0x34 }
  - { offsetInCU: 0xA311, offset: 0xA311, size: 0x8, addend: 0x0, symName: __ZNSt3__118__unwrap_iter_implIPiLb1EE8__unwrapB7v160006ES1_, symObjAddr: 0x14F0, symBinAddr: 0x1000039F0, symSize: 0x24 }
  - { offsetInCU: 0xA334, offset: 0xA334, size: 0x8, addend: 0x0, symName: __ZNSt3__14pairIPKiPiEC1B7v160006IS2_S3_LPv0EEEOT_OT0_, symObjAddr: 0x1514, symBinAddr: 0x100003A14, symSize: 0x3C }
  - { offsetInCU: 0xA390, offset: 0xA390, size: 0x8, addend: 0x0, symName: __ZNSt3__14pairIPKiPiEC2B7v160006IS2_S3_LPv0EEEOT_OT0_, symObjAddr: 0x1550, symBinAddr: 0x100003A50, symSize: 0x34 }
  - { offsetInCU: 0xA3ED, offset: 0xA3ED, size: 0x8, addend: 0x0, symName: __ZNSt3__119__unwrap_range_implIPKiS2_E8__rewrapB7v160006ES2_S2_, symObjAddr: 0x1584, symBinAddr: 0x100003A84, symSize: 0x2C }
  - { offsetInCU: 0xA41E, offset: 0xA41E, size: 0x8, addend: 0x0, symName: __ZNSt3__118__unwrap_iter_implIPKiLb1EE8__rewrapB7v160006ES2_S2_, symObjAddr: 0x15EC, symBinAddr: 0x100003AEC, symSize: 0x50 }
  - { offsetInCU: 0xA44F, offset: 0xA44F, size: 0x8, addend: 0x0, symName: __ZNSt3__118__unwrap_iter_implIPiLb1EE8__rewrapB7v160006ES1_S1_, symObjAddr: 0x163C, symBinAddr: 0x100003B3C, symSize: 0x50 }
  - { offsetInCU: 0xA480, offset: 0xA480, size: 0x8, addend: 0x0, symName: __ZNSt3__16vectorIiNS_9allocatorIiEEE21_ConstructTransactionD2B7v160006Ev, symObjAddr: 0x168C, symBinAddr: 0x100003B8C, symSize: 0x20 }
  - { offsetInCU: 0xA4A9, offset: 0xA4A9, size: 0x8, addend: 0x0, symName: __ZNSt3__128__exception_guard_exceptionsINS_6vectorIiNS_9allocatorIiEEE16__destroy_vectorEED2B7v160006Ev, symObjAddr: 0x16AC, symBinAddr: 0x100003BAC, symSize: 0x50 }
  - { offsetInCU: 0xA4D0, offset: 0xA4D0, size: 0x8, addend: 0x0, symName: __ZNSt3__16vectorIiNS_9allocatorIiEEE16__destroy_vectorclB7v160006Ev, symObjAddr: 0x16FC, symBinAddr: 0x100003BFC, symSize: 0x9C }
  - { offsetInCU: 0xA4F4, offset: 0xA4F4, size: 0x8, addend: 0x0, symName: __ZNKSt3__16vectorIiNS_9allocatorIiEEE17__annotate_deleteB7v160006Ev, symObjAddr: 0x1798, symBinAddr: 0x100003C98, symSize: 0xB8 }
  - { offsetInCU: 0xA518, offset: 0xA518, size: 0x8, addend: 0x0, symName: __ZNSt3__16vectorIiNS_9allocatorIiEEE7__clearB7v160006Ev, symObjAddr: 0x1860, symBinAddr: 0x100003D60, symSize: 0x28 }
  - { offsetInCU: 0xA53D, offset: 0xA53D, size: 0x8, addend: 0x0, symName: __ZNSt3__116allocator_traitsINS_9allocatorIiEEE10deallocateB7v160006ERS2_Pim, symObjAddr: 0x1888, symBinAddr: 0x100003D88, symSize: 0x34 }
  - { offsetInCU: 0xA57F, offset: 0xA57F, size: 0x8, addend: 0x0, symName: __ZNKSt3__16vectorIiNS_9allocatorIiEEE4sizeB7v160006Ev, symObjAddr: 0x18BC, symBinAddr: 0x100003DBC, symSize: 0x28 }
  - { offsetInCU: 0xA5A3, offset: 0xA5A3, size: 0x8, addend: 0x0, symName: __ZNSt3__16vectorIiNS_9allocatorIiEEE22__base_destruct_at_endB7v160006EPi, symObjAddr: 0x18E4, symBinAddr: 0x100003DE4, symSize: 0x8C }
  - { offsetInCU: 0xA5E6, offset: 0xA5E6, size: 0x8, addend: 0x0, symName: __ZNSt3__116allocator_traitsINS_9allocatorIiEEE7destroyB7v160006IivvEEvRS2_PT_, symObjAddr: 0x1970, symBinAddr: 0x100003E70, symSize: 0x28 }
  - { offsetInCU: 0xA61F, offset: 0xA61F, size: 0x8, addend: 0x0, symName: __ZNSt3__19allocatorIiE10deallocateB7v160006EPim, symObjAddr: 0x19CC, symBinAddr: 0x100003ECC, symSize: 0x40 }
  - { offsetInCU: 0xA65F, offset: 0xA65F, size: 0x8, addend: 0x0, symName: __ZNSt3__16vectorINS_13unordered_mapIxxNS_4hashIxEENS_8equal_toIxEENS_9allocatorINS_4pairIKxxEEEEEENS6_ISB_EEEC1Em, symObjAddr: 0x1B14, symBinAddr: 0x100004014, symSize: 0x34 }
  - { offsetInCU: 0xA699, offset: 0xA699, size: 0x8, addend: 0x0, symName: __ZNSt3__16vectorIiNS_9allocatorIiEEEixB7v160006Em, symObjAddr: 0x1B48, symBinAddr: 0x100004048, symSize: 0x24 }
  - { offsetInCU: 0xA6CF, offset: 0xA6CF, size: 0x8, addend: 0x0, symName: __ZNSt3__16vectorINS_13unordered_mapIxxNS_4hashIxEENS_8equal_toIxEENS_9allocatorINS_4pairIKxxEEEEEENS6_ISB_EEEixB7v160006Em, symObjAddr: 0x1B6C, symBinAddr: 0x10000406C, symSize: 0x2C }
  - { offsetInCU: 0xA705, offset: 0xA705, size: 0x8, addend: 0x0, symName: __ZNSt3__113unordered_mapIxxNS_4hashIxEENS_8equal_toIxEENS_9allocatorINS_4pairIKxxEEEEEixERS7_, symObjAddr: 0x1B98, symBinAddr: 0x100004098, symSize: 0x80 }
  - { offsetInCU: 0xA73B, offset: 0xA73B, size: 0x8, addend: 0x0, symName: __ZNSt3__16vectorINS_13unordered_mapIxxNS_4hashIxEENS_8equal_toIxEENS_9allocatorINS_4pairIKxxEEEEEENS6_ISB_EEED1B7v160006Ev, symObjAddr: 0x1C18, symBinAddr: 0x100004118, symSize: 0x2C }
  - { offsetInCU: 0xA762, offset: 0xA762, size: 0x8, addend: 0x0, symName: __ZNSt3__16vectorINS_13unordered_mapIxxNS_4hashIxEENS_8equal_toIxEENS_9allocatorINS_4pairIKxxEEEEEENS6_ISB_EEEC2Em, symObjAddr: 0x1C44, symBinAddr: 0x100004144, symSize: 0xE0 }
  - { offsetInCU: 0xA7B1, offset: 0xA7B1, size: 0x8, addend: 0x0, symName: __ZNSt3__117__compressed_pairIPNS_13unordered_mapIxxNS_4hashIxEENS_8equal_toIxEENS_9allocatorINS_4pairIKxxEEEEEENS6_ISB_EEEC1B7v160006IDnNS_18__default_init_tagEEEOT_OT0_, symObjAddr: 0x1D24, symBinAddr: 0x100004224, symSize: 0x3C }
  - { offsetInCU: 0xA807, offset: 0xA807, size: 0x8, addend: 0x0, symName: __ZNSt3__16vectorINS_13unordered_mapIxxNS_4hashIxEENS_8equal_toIxEENS_9allocatorINS_4pairIKxxEEEEEENS6_ISB_EEE16__destroy_vectorC1ERSD_, symObjAddr: 0x1DA0, symBinAddr: 0x1000042A0, symSize: 0x34 }
  - { offsetInCU: 0xA83D, offset: 0xA83D, size: 0x8, addend: 0x0, symName: __ZNSt3__16vectorINS_13unordered_mapIxxNS_4hashIxEENS_8equal_toIxEENS_9allocatorINS_4pairIKxxEEEEEENS6_ISB_EEE11__vallocateB7v160006Em, symObjAddr: 0x1DE4, symBinAddr: 0x1000042E4, symSize: 0xB4 }
  - { offsetInCU: 0xA880, offset: 0xA880, size: 0x8, addend: 0x0, symName: __ZNSt3__16vectorINS_13unordered_mapIxxNS_4hashIxEENS_8equal_toIxEENS_9allocatorINS_4pairIKxxEEEEEENS6_ISB_EEE18__construct_at_endEm, symObjAddr: 0x1E98, symBinAddr: 0x100004398, symSize: 0xC8 }
  - { offsetInCU: 0xA8F1, offset: 0xA8F1, size: 0x8, addend: 0x0, symName: __ZNSt3__128__exception_guard_exceptionsINS_6vectorINS_13unordered_mapIxxNS_4hashIxEENS_8equal_toIxEENS_9allocatorINS_4pairIKxxEEEEEENS7_ISC_EEE16__destroy_vectorEE10__completeB7v160006Ev, symObjAddr: 0x1F60, symBinAddr: 0x100004460, symSize: 0x1C }
  - { offsetInCU: 0xA916, offset: 0xA916, size: 0x8, addend: 0x0, symName: __ZNSt3__128__exception_guard_exceptionsINS_6vectorINS_13unordered_mapIxxNS_4hashIxEENS_8equal_toIxEENS_9allocatorINS_4pairIKxxEEEEEENS7_ISC_EEE16__destroy_vectorEED1B7v160006Ev, symObjAddr: 0x1F7C, symBinAddr: 0x10000447C, symSize: 0x2C }
  - { offsetInCU: 0xA93E, offset: 0xA93E, size: 0x8, addend: 0x0, symName: __ZNSt3__117__compressed_pairIPNS_13unordered_mapIxxNS_4hashIxEENS_8equal_toIxEENS_9allocatorINS_4pairIKxxEEEEEENS6_ISB_EEEC2B7v160006IDnNS_18__default_init_tagEEEOT_OT0_, symObjAddr: 0x1FA8, symBinAddr: 0x1000044A8, symSize: 0x40 }
  - { offsetInCU: 0xA994, offset: 0xA994, size: 0x8, addend: 0x0, symName: __ZNSt3__122__compressed_pair_elemIPNS_13unordered_mapIxxNS_4hashIxEENS_8equal_toIxEENS_9allocatorINS_4pairIKxxEEEEEELi0ELb0EEC2B7v160006IDnvEEOT_, symObjAddr: 0x1FE8, symBinAddr: 0x1000044E8, symSize: 0x1C }
  - { offsetInCU: 0xA9D5, offset: 0xA9D5, size: 0x8, addend: 0x0, symName: __ZNSt3__122__compressed_pair_elemINS_9allocatorINS_13unordered_mapIxxNS_4hashIxEENS_8equal_toIxEENS1_INS_4pairIKxxEEEEEEEELi1ELb1EEC2B7v160006ENS_18__default_init_tagE, symObjAddr: 0x2004, symBinAddr: 0x100004504, symSize: 0x2C }
  - { offsetInCU: 0xAA08, offset: 0xAA08, size: 0x8, addend: 0x0, symName: __ZNSt3__19allocatorINS_13unordered_mapIxxNS_4hashIxEENS_8equal_toIxEENS0_INS_4pairIKxxEEEEEEEC2B7v160006Ev, symObjAddr: 0x2030, symBinAddr: 0x100004530, symSize: 0x2C }
  - { offsetInCU: 0xAA30, offset: 0xAA30, size: 0x8, addend: 0x0, symName: __ZNSt3__116__non_trivial_ifILb1ENS_9allocatorINS_13unordered_mapIxxNS_4hashIxEENS_8equal_toIxEENS1_INS_4pairIKxxEEEEEEEEEC2B7v160006Ev, symObjAddr: 0x205C, symBinAddr: 0x10000455C, symSize: 0x14 }
  - { offsetInCU: 0xAA59, offset: 0xAA59, size: 0x8, addend: 0x0, symName: __ZNSt3__128__exception_guard_exceptionsINS_6vectorINS_13unordered_mapIxxNS_4hashIxEENS_8equal_toIxEENS_9allocatorINS_4pairIKxxEEEEEENS7_ISC_EEE16__destroy_vectorEEC1B7v160006ESF_, symObjAddr: 0x2070, symBinAddr: 0x100004570, symSize: 0x34 }
  - { offsetInCU: 0xAA8F, offset: 0xAA8F, size: 0x8, addend: 0x0, symName: __ZNSt3__128__exception_guard_exceptionsINS_6vectorINS_13unordered_mapIxxNS_4hashIxEENS_8equal_toIxEENS_9allocatorINS_4pairIKxxEEEEEENS7_ISC_EEE16__destroy_vectorEEC2B7v160006ESF_, symObjAddr: 0x20A4, symBinAddr: 0x1000045A4, symSize: 0x24 }
  - { offsetInCU: 0xAAC6, offset: 0xAAC6, size: 0x8, addend: 0x0, symName: __ZNSt3__16vectorINS_13unordered_mapIxxNS_4hashIxEENS_8equal_toIxEENS_9allocatorINS_4pairIKxxEEEEEENS6_ISB_EEE16__destroy_vectorC2ERSD_, symObjAddr: 0x20C8, symBinAddr: 0x1000045C8, symSize: 0x20 }
  - { offsetInCU: 0xAAFE, offset: 0xAAFE, size: 0x8, addend: 0x0, symName: __ZNKSt3__16vectorINS_13unordered_mapIxxNS_4hashIxEENS_8equal_toIxEENS_9allocatorINS_4pairIKxxEEEEEENS6_ISB_EEE8max_sizeEv, symObjAddr: 0x20E8, symBinAddr: 0x1000045E8, symSize: 0x60 }
  - { offsetInCU: 0xAB24, offset: 0xAB24, size: 0x8, addend: 0x0, symName: __ZNKSt3__16vectorINS_13unordered_mapIxxNS_4hashIxEENS_8equal_toIxEENS_9allocatorINS_4pairIKxxEEEEEENS6_ISB_EEE20__throw_length_errorB7v160006Ev, symObjAddr: 0x2148, symBinAddr: 0x100004648, symSize: 0x1C }
  - { offsetInCU: 0xAB48, offset: 0xAB48, size: 0x8, addend: 0x0, symName: __ZNSt3__16vectorINS_13unordered_mapIxxNS_4hashIxEENS_8equal_toIxEENS_9allocatorINS_4pairIKxxEEEEEENS6_ISB_EEE7__allocB7v160006Ev, symObjAddr: 0x21A4, symBinAddr: 0x1000046A4, symSize: 0x28 }
  - { offsetInCU: 0xAB6C, offset: 0xAB6C, size: 0x8, addend: 0x0, symName: __ZNSt3__16vectorINS_13unordered_mapIxxNS_4hashIxEENS_8equal_toIxEENS_9allocatorINS_4pairIKxxEEEEEENS6_ISB_EEE9__end_capB7v160006Ev, symObjAddr: 0x21CC, symBinAddr: 0x1000046CC, symSize: 0x28 }
  - { offsetInCU: 0xAB90, offset: 0xAB90, size: 0x8, addend: 0x0, symName: __ZNKSt3__16vectorINS_13unordered_mapIxxNS_4hashIxEENS_8equal_toIxEENS_9allocatorINS_4pairIKxxEEEEEENS6_ISB_EEE14__annotate_newB7v160006Em, symObjAddr: 0x21F4, symBinAddr: 0x1000046F4, symSize: 0xC8 }
  - { offsetInCU: 0xABCE, offset: 0xABCE, size: 0x8, addend: 0x0, symName: __ZNSt3__116allocator_traitsINS_9allocatorINS_13unordered_mapIxxNS_4hashIxEENS_8equal_toIxEENS1_INS_4pairIKxxEEEEEEEEE8max_sizeB7v160006ISC_vvEEmRKSC_, symObjAddr: 0x22BC, symBinAddr: 0x1000047BC, symSize: 0x28 }
  - { offsetInCU: 0xABF8, offset: 0xABF8, size: 0x8, addend: 0x0, symName: __ZNKSt3__16vectorINS_13unordered_mapIxxNS_4hashIxEENS_8equal_toIxEENS_9allocatorINS_4pairIKxxEEEEEENS6_ISB_EEE7__allocB7v160006Ev, symObjAddr: 0x22E4, symBinAddr: 0x1000047E4, symSize: 0x28 }
  - { offsetInCU: 0xAC1C, offset: 0xAC1C, size: 0x8, addend: 0x0, symName: __ZNKSt3__117__compressed_pairIPNS_13unordered_mapIxxNS_4hashIxEENS_8equal_toIxEENS_9allocatorINS_4pairIKxxEEEEEENS6_ISB_EEE6secondB7v160006Ev, symObjAddr: 0x230C, symBinAddr: 0x10000480C, symSize: 0x24 }
  - { offsetInCU: 0xAC41, offset: 0xAC41, size: 0x8, addend: 0x0, symName: __ZNKSt3__122__compressed_pair_elemINS_9allocatorINS_13unordered_mapIxxNS_4hashIxEENS_8equal_toIxEENS1_INS_4pairIKxxEEEEEEEELi1ELb1EE5__getB7v160006Ev, symObjAddr: 0x2330, symBinAddr: 0x100004830, symSize: 0x14 }
  - { offsetInCU: 0xAC65, offset: 0xAC65, size: 0x8, addend: 0x0, symName: __ZNSt3__19allocatorINS_13unordered_mapIxxNS_4hashIxEENS_8equal_toIxEENS0_INS_4pairIKxxEEEEEEE8allocateB7v160006Em, symObjAddr: 0x2344, symBinAddr: 0x100004844, symSize: 0x5C }
  - { offsetInCU: 0xAC97, offset: 0xAC97, size: 0x8, addend: 0x0, symName: __ZNSt3__117__compressed_pairIPNS_13unordered_mapIxxNS_4hashIxEENS_8equal_toIxEENS_9allocatorINS_4pairIKxxEEEEEENS6_ISB_EEE6secondB7v160006Ev, symObjAddr: 0x23A0, symBinAddr: 0x1000048A0, symSize: 0x24 }
  - { offsetInCU: 0xACBC, offset: 0xACBC, size: 0x8, addend: 0x0, symName: __ZNSt3__122__compressed_pair_elemINS_9allocatorINS_13unordered_mapIxxNS_4hashIxEENS_8equal_toIxEENS1_INS_4pairIKxxEEEEEEEELi1ELb1EE5__getB7v160006Ev, symObjAddr: 0x23C4, symBinAddr: 0x1000048C4, symSize: 0x14 }
  - { offsetInCU: 0xACE0, offset: 0xACE0, size: 0x8, addend: 0x0, symName: __ZNSt3__117__compressed_pairIPNS_13unordered_mapIxxNS_4hashIxEENS_8equal_toIxEENS_9allocatorINS_4pairIKxxEEEEEENS6_ISB_EEE5firstB7v160006Ev, symObjAddr: 0x23D8, symBinAddr: 0x1000048D8, symSize: 0x24 }
  - { offsetInCU: 0xAD05, offset: 0xAD05, size: 0x8, addend: 0x0, symName: __ZNSt3__122__compressed_pair_elemIPNS_13unordered_mapIxxNS_4hashIxEENS_8equal_toIxEENS_9allocatorINS_4pairIKxxEEEEEELi0ELb0EE5__getB7v160006Ev, symObjAddr: 0x23FC, symBinAddr: 0x1000048FC, symSize: 0x14 }
  - { offsetInCU: 0xAD2A, offset: 0xAD2A, size: 0x8, addend: 0x0, symName: __ZNKSt3__16vectorINS_13unordered_mapIxxNS_4hashIxEENS_8equal_toIxEENS_9allocatorINS_4pairIKxxEEEEEENS6_ISB_EEE31__annotate_contiguous_containerB7v160006EPKvSF_SF_SF_, symObjAddr: 0x2410, symBinAddr: 0x100004910, symSize: 0x20 }
  - { offsetInCU: 0xAD7A, offset: 0xAD7A, size: 0x8, addend: 0x0, symName: __ZNKSt3__16vectorINS_13unordered_mapIxxNS_4hashIxEENS_8equal_toIxEENS_9allocatorINS_4pairIKxxEEEEEENS6_ISB_EEE4dataB7v160006Ev, symObjAddr: 0x2430, symBinAddr: 0x100004930, symSize: 0x28 }
  - { offsetInCU: 0xAD9E, offset: 0xAD9E, size: 0x8, addend: 0x0, symName: __ZNKSt3__16vectorINS_13unordered_mapIxxNS_4hashIxEENS_8equal_toIxEENS_9allocatorINS_4pairIKxxEEEEEENS6_ISB_EEE8capacityB7v160006Ev, symObjAddr: 0x2458, symBinAddr: 0x100004958, symSize: 0x40 }
  - { offsetInCU: 0xADC2, offset: 0xADC2, size: 0x8, addend: 0x0, symName: __ZNKSt3__16vectorINS_13unordered_mapIxxNS_4hashIxEENS_8equal_toIxEENS_9allocatorINS_4pairIKxxEEEEEENS6_ISB_EEE9__end_capB7v160006Ev, symObjAddr: 0x24AC, symBinAddr: 0x1000049AC, symSize: 0x28 }
  - { offsetInCU: 0xADE6, offset: 0xADE6, size: 0x8, addend: 0x0, symName: __ZNKSt3__117__compressed_pairIPNS_13unordered_mapIxxNS_4hashIxEENS_8equal_toIxEENS_9allocatorINS_4pairIKxxEEEEEENS6_ISB_EEE5firstB7v160006Ev, symObjAddr: 0x24D4, symBinAddr: 0x1000049D4, symSize: 0x24 }
  - { offsetInCU: 0xAE0B, offset: 0xAE0B, size: 0x8, addend: 0x0, symName: __ZNKSt3__122__compressed_pair_elemIPNS_13unordered_mapIxxNS_4hashIxEENS_8equal_toIxEENS_9allocatorINS_4pairIKxxEEEEEELi0ELb0EE5__getB7v160006Ev, symObjAddr: 0x24F8, symBinAddr: 0x1000049F8, symSize: 0x14 }
  - { offsetInCU: 0xAE49, offset: 0xAE49, size: 0x8, addend: 0x0, symName: __ZNSt3__16vectorINS_13unordered_mapIxxNS_4hashIxEENS_8equal_toIxEENS_9allocatorINS_4pairIKxxEEEEEENS6_ISB_EEE21_ConstructTransactionC1B7v160006ERSD_m, symObjAddr: 0x250C, symBinAddr: 0x100004A0C, symSize: 0x3C }
  - { offsetInCU: 0xAE8F, offset: 0xAE8F, size: 0x8, addend: 0x0, symName: __ZNSt3__116allocator_traitsINS_9allocatorINS_13unordered_mapIxxNS_4hashIxEENS_8equal_toIxEENS1_INS_4pairIKxxEEEEEEEEE9constructB7v160006ISB_JEvvEEvRSC_PT_DpOT0_, symObjAddr: 0x2548, symBinAddr: 0x100004A48, symSize: 0x28 }
  - { offsetInCU: 0xAECE, offset: 0xAECE, size: 0x8, addend: 0x0, symName: __ZNSt3__16vectorINS_13unordered_mapIxxNS_4hashIxEENS_8equal_toIxEENS_9allocatorINS_4pairIKxxEEEEEENS6_ISB_EEE21_ConstructTransactionD1B7v160006Ev, symObjAddr: 0x2570, symBinAddr: 0x100004A70, symSize: 0x2C }
  - { offsetInCU: 0xAEF6, offset: 0xAEF6, size: 0x8, addend: 0x0, symName: __ZNSt3__16vectorINS_13unordered_mapIxxNS_4hashIxEENS_8equal_toIxEENS_9allocatorINS_4pairIKxxEEEEEENS6_ISB_EEE21_ConstructTransactionC2B7v160006ERSD_m, symObjAddr: 0x259C, symBinAddr: 0x100004A9C, symSize: 0x4C }
  - { offsetInCU: 0xAF3D, offset: 0xAF3D, size: 0x8, addend: 0x0, symName: __ZNSt3__113unordered_mapIxxNS_4hashIxEENS_8equal_toIxEENS_9allocatorINS_4pairIKxxEEEEEC1B7v160006Ev, symObjAddr: 0x261C, symBinAddr: 0x100004B1C, symSize: 0x2C }
  - { offsetInCU: 0xAF65, offset: 0xAF65, size: 0x8, addend: 0x0, symName: __ZNSt3__113unordered_mapIxxNS_4hashIxEENS_8equal_toIxEENS_9allocatorINS_4pairIKxxEEEEEC2B7v160006Ev, symObjAddr: 0x2648, symBinAddr: 0x100004B48, symSize: 0x3C }
  - { offsetInCU: 0xAF8C, offset: 0xAF8C, size: 0x8, addend: 0x0, symName: __ZNSt3__112__hash_tableINS_17__hash_value_typeIxxEENS_22__unordered_map_hasherIxS2_NS_4hashIxEENS_8equal_toIxEELb1EEENS_21__unordered_map_equalIxS2_S7_S5_Lb1EEENS_9allocatorIS2_EEEC1Ev, symObjAddr: 0x2684, symBinAddr: 0x100004B84, symSize: 0x2C }
  - { offsetInCU: 0xAFB6, offset: 0xAFB6, size: 0x8, addend: 0x0, symName: __ZNSt3__112__hash_tableINS_17__hash_value_typeIxxEENS_22__unordered_map_hasherIxS2_NS_4hashIxEENS_8equal_toIxEELb1EEENS_21__unordered_map_equalIxS2_S7_S5_Lb1EEENS_9allocatorIS2_EEEC2Ev, symObjAddr: 0x26C0, symBinAddr: 0x100004BC0, symSize: 0x7C }
  - { offsetInCU: 0xAFE1, offset: 0xAFE1, size: 0x8, addend: 0x0, symName: __ZNSt3__110unique_ptrIA_PNS_16__hash_node_baseIPNS_11__hash_nodeINS_17__hash_value_typeIxxEEPvEEEENS_25__bucket_list_deallocatorINS_9allocatorIS9_EEEEEC1B7v160006ILb1EvEEv, symObjAddr: 0x273C, symBinAddr: 0x100004C3C, symSize: 0x2C }
  - { offsetInCU: 0xB014, offset: 0xB014, size: 0x8, addend: 0x0, symName: __ZNSt3__117__compressed_pairINS_16__hash_node_baseIPNS_11__hash_nodeINS_17__hash_value_typeIxxEEPvEEEENS_9allocatorIS6_EEEC1B7v160006ILb1EvEEv, symObjAddr: 0x2768, symBinAddr: 0x100004C68, symSize: 0x2C }
  - { offsetInCU: 0xB04C, offset: 0xB04C, size: 0x8, addend: 0x0, symName: __ZNSt3__117__compressed_pairImNS_22__unordered_map_hasherIxNS_17__hash_value_typeIxxEENS_4hashIxEENS_8equal_toIxEELb1EEEEC1B7v160006IiNS_18__default_init_tagEEEOT_OT0_, symObjAddr: 0x2794, symBinAddr: 0x100004C94, symSize: 0x3C }
  - { offsetInCU: 0xB0A7, offset: 0xB0A7, size: 0x8, addend: 0x0, symName: __ZNSt3__117__compressed_pairIfNS_21__unordered_map_equalIxNS_17__hash_value_typeIxxEENS_8equal_toIxEENS_4hashIxEELb1EEEEC1B7v160006IfNS_18__default_init_tagEEEOT_OT0_, symObjAddr: 0x27D0, symBinAddr: 0x100004CD0, symSize: 0x3C }
  - { offsetInCU: 0xB0FD, offset: 0xB0FD, size: 0x8, addend: 0x0, symName: __ZNSt3__110unique_ptrIA_PNS_16__hash_node_baseIPNS_11__hash_nodeINS_17__hash_value_typeIxxEEPvEEEENS_25__bucket_list_deallocatorINS_9allocatorIS9_EEEEEC2B7v160006ILb1EvEEv, symObjAddr: 0x280C, symBinAddr: 0x100004D0C, symSize: 0x3C }
  - { offsetInCU: 0xB135, offset: 0xB135, size: 0x8, addend: 0x0, symName: __ZNSt3__117__compressed_pairIPPNS_16__hash_node_baseIPNS_11__hash_nodeINS_17__hash_value_typeIxxEEPvEEEENS_25__bucket_list_deallocatorINS_9allocatorIS9_EEEEEC1B7v160006INS_16__value_init_tagESH_EEOT_OT0_, symObjAddr: 0x2848, symBinAddr: 0x100004D48, symSize: 0x3C }
  - { offsetInCU: 0xB18B, offset: 0xB18B, size: 0x8, addend: 0x0, symName: __ZNSt3__117__compressed_pairIPPNS_16__hash_node_baseIPNS_11__hash_nodeINS_17__hash_value_typeIxxEEPvEEEENS_25__bucket_list_deallocatorINS_9allocatorIS9_EEEEEC2B7v160006INS_16__value_init_tagESH_EEOT_OT0_, symObjAddr: 0x2884, symBinAddr: 0x100004D84, symSize: 0x40 }
  - { offsetInCU: 0xB1E1, offset: 0xB1E1, size: 0x8, addend: 0x0, symName: __ZNSt3__122__compressed_pair_elemIPPNS_16__hash_node_baseIPNS_11__hash_nodeINS_17__hash_value_typeIxxEEPvEEEELi0ELb0EEC2B7v160006ENS_16__value_init_tagE, symObjAddr: 0x28C4, symBinAddr: 0x100004DC4, symSize: 0x18 }
  - { offsetInCU: 0xB215, offset: 0xB215, size: 0x8, addend: 0x0, symName: __ZNSt3__122__compressed_pair_elemINS_25__bucket_list_deallocatorINS_9allocatorIPNS_16__hash_node_baseIPNS_11__hash_nodeINS_17__hash_value_typeIxxEEPvEEEEEEEELi1ELb0EEC2B7v160006ENS_16__value_init_tagE, symObjAddr: 0x28DC, symBinAddr: 0x100004DDC, symSize: 0x2C }
  - { offsetInCU: 0xB248, offset: 0xB248, size: 0x8, addend: 0x0, symName: __ZNSt3__125__bucket_list_deallocatorINS_9allocatorIPNS_16__hash_node_baseIPNS_11__hash_nodeINS_17__hash_value_typeIxxEEPvEEEEEEEC1B7v160006Ev, symObjAddr: 0x2908, symBinAddr: 0x100004E08, symSize: 0x2C }
  - { offsetInCU: 0xB270, offset: 0xB270, size: 0x8, addend: 0x0, symName: __ZNSt3__125__bucket_list_deallocatorINS_9allocatorIPNS_16__hash_node_baseIPNS_11__hash_nodeINS_17__hash_value_typeIxxEEPvEEEEEEEC2B7v160006Ev, symObjAddr: 0x2934, symBinAddr: 0x100004E34, symSize: 0x40 }
  - { offsetInCU: 0xB298, offset: 0xB298, size: 0x8, addend: 0x0, symName: __ZNSt3__117__compressed_pairImNS_9allocatorIPNS_16__hash_node_baseIPNS_11__hash_nodeINS_17__hash_value_typeIxxEEPvEEEEEEEC1B7v160006IiNS_18__default_init_tagEEEOT_OT0_, symObjAddr: 0x2974, symBinAddr: 0x100004E74, symSize: 0x3C }
  - { offsetInCU: 0xB2EE, offset: 0xB2EE, size: 0x8, addend: 0x0, symName: __ZNSt3__117__compressed_pairImNS_9allocatorIPNS_16__hash_node_baseIPNS_11__hash_nodeINS_17__hash_value_typeIxxEEPvEEEEEEEC2B7v160006IiNS_18__default_init_tagEEEOT_OT0_, symObjAddr: 0x29B0, symBinAddr: 0x100004EB0, symSize: 0x40 }
  - { offsetInCU: 0xB344, offset: 0xB344, size: 0x8, addend: 0x0, symName: __ZNSt3__122__compressed_pair_elemImLi0ELb0EEC2B7v160006IivEEOT_, symObjAddr: 0x29F0, symBinAddr: 0x100004EF0, symSize: 0x24 }
  - { offsetInCU: 0xB385, offset: 0xB385, size: 0x8, addend: 0x0, symName: __ZNSt3__122__compressed_pair_elemINS_9allocatorIPNS_16__hash_node_baseIPNS_11__hash_nodeINS_17__hash_value_typeIxxEEPvEEEEEELi1ELb1EEC2B7v160006ENS_18__default_init_tagE, symObjAddr: 0x2A14, symBinAddr: 0x100004F14, symSize: 0x2C }
  - { offsetInCU: 0xB3B8, offset: 0xB3B8, size: 0x8, addend: 0x0, symName: __ZNSt3__19allocatorIPNS_16__hash_node_baseIPNS_11__hash_nodeINS_17__hash_value_typeIxxEEPvEEEEEC2B7v160006Ev, symObjAddr: 0x2A40, symBinAddr: 0x100004F40, symSize: 0x2C }
  - { offsetInCU: 0xB3E0, offset: 0xB3E0, size: 0x8, addend: 0x0, symName: __ZNSt3__116__non_trivial_ifILb1ENS_9allocatorIPNS_16__hash_node_baseIPNS_11__hash_nodeINS_17__hash_value_typeIxxEEPvEEEEEEEC2B7v160006Ev, symObjAddr: 0x2A6C, symBinAddr: 0x100004F6C, symSize: 0x14 }
  - { offsetInCU: 0xB409, offset: 0xB409, size: 0x8, addend: 0x0, symName: __ZNSt3__117__compressed_pairINS_16__hash_node_baseIPNS_11__hash_nodeINS_17__hash_value_typeIxxEEPvEEEENS_9allocatorIS6_EEEC2B7v160006ILb1EvEEv, symObjAddr: 0x2A80, symBinAddr: 0x100004F80, symSize: 0x34 }
  - { offsetInCU: 0xB43C, offset: 0xB43C, size: 0x8, addend: 0x0, symName: __ZNSt3__122__compressed_pair_elemINS_16__hash_node_baseIPNS_11__hash_nodeINS_17__hash_value_typeIxxEEPvEEEELi0ELb0EEC2B7v160006ENS_16__value_init_tagE, symObjAddr: 0x2AB4, symBinAddr: 0x100004FB4, symSize: 0x2C }
  - { offsetInCU: 0xB46F, offset: 0xB46F, size: 0x8, addend: 0x0, symName: __ZNSt3__122__compressed_pair_elemINS_9allocatorINS_11__hash_nodeINS_17__hash_value_typeIxxEEPvEEEELi1ELb1EEC2B7v160006ENS_16__value_init_tagE, symObjAddr: 0x2AE0, symBinAddr: 0x100004FE0, symSize: 0x2C }
  - { offsetInCU: 0xB4A2, offset: 0xB4A2, size: 0x8, addend: 0x0, symName: __ZNSt3__116__hash_node_baseIPNS_11__hash_nodeINS_17__hash_value_typeIxxEEPvEEEC1B7v160006Ev, symObjAddr: 0x2B0C, symBinAddr: 0x10000500C, symSize: 0x2C }
  - { offsetInCU: 0xB4CA, offset: 0xB4CA, size: 0x8, addend: 0x0, symName: __ZNSt3__116__hash_node_baseIPNS_11__hash_nodeINS_17__hash_value_typeIxxEEPvEEEC2B7v160006Ev, symObjAddr: 0x2B38, symBinAddr: 0x100005038, symSize: 0x18 }
  - { offsetInCU: 0xB4F3, offset: 0xB4F3, size: 0x8, addend: 0x0, symName: __ZNSt3__19allocatorINS_11__hash_nodeINS_17__hash_value_typeIxxEEPvEEEC2B7v160006Ev, symObjAddr: 0x2B50, symBinAddr: 0x100005050, symSize: 0x2C }
  - { offsetInCU: 0xB51B, offset: 0xB51B, size: 0x8, addend: 0x0, symName: __ZNSt3__116__non_trivial_ifILb1ENS_9allocatorINS_11__hash_nodeINS_17__hash_value_typeIxxEEPvEEEEEC2B7v160006Ev, symObjAddr: 0x2B7C, symBinAddr: 0x10000507C, symSize: 0x14 }
  - { offsetInCU: 0xB544, offset: 0xB544, size: 0x8, addend: 0x0, symName: __ZNSt3__117__compressed_pairImNS_22__unordered_map_hasherIxNS_17__hash_value_typeIxxEENS_4hashIxEENS_8equal_toIxEELb1EEEEC2B7v160006IiNS_18__default_init_tagEEEOT_OT0_, symObjAddr: 0x2B90, symBinAddr: 0x100005090, symSize: 0x40 }
  - { offsetInCU: 0xB59A, offset: 0xB59A, size: 0x8, addend: 0x0, symName: __ZNSt3__122__compressed_pair_elemINS_22__unordered_map_hasherIxNS_17__hash_value_typeIxxEENS_4hashIxEENS_8equal_toIxEELb1EEELi1ELb1EEC2B7v160006ENS_18__default_init_tagE, symObjAddr: 0x2BD0, symBinAddr: 0x1000050D0, symSize: 0x2C }
  - { offsetInCU: 0xB5CD, offset: 0xB5CD, size: 0x8, addend: 0x0, symName: __ZNSt3__122__unordered_map_hasherIxNS_17__hash_value_typeIxxEENS_4hashIxEENS_8equal_toIxEELb1EEC2B7v160006Ev, symObjAddr: 0x2BFC, symBinAddr: 0x1000050FC, symSize: 0x14 }
  - { offsetInCU: 0xB5F6, offset: 0xB5F6, size: 0x8, addend: 0x0, symName: __ZNSt3__117__compressed_pairIfNS_21__unordered_map_equalIxNS_17__hash_value_typeIxxEENS_8equal_toIxEENS_4hashIxEELb1EEEEC2B7v160006IfNS_18__default_init_tagEEEOT_OT0_, symObjAddr: 0x2C10, symBinAddr: 0x100005110, symSize: 0x40 }
  - { offsetInCU: 0xB64C, offset: 0xB64C, size: 0x8, addend: 0x0, symName: __ZNSt3__122__compressed_pair_elemIfLi0ELb0EEC2B7v160006IfvEEOT_, symObjAddr: 0x2C50, symBinAddr: 0x100005150, symSize: 0x24 }
  - { offsetInCU: 0xB68D, offset: 0xB68D, size: 0x8, addend: 0x0, symName: __ZNSt3__122__compressed_pair_elemINS_21__unordered_map_equalIxNS_17__hash_value_typeIxxEENS_8equal_toIxEENS_4hashIxEELb1EEELi1ELb1EEC2B7v160006ENS_18__default_init_tagE, symObjAddr: 0x2C74, symBinAddr: 0x100005174, symSize: 0x2C }
  - { offsetInCU: 0xB6C0, offset: 0xB6C0, size: 0x8, addend: 0x0, symName: __ZNSt3__121__unordered_map_equalIxNS_17__hash_value_typeIxxEENS_8equal_toIxEENS_4hashIxEELb1EEC2B7v160006Ev, symObjAddr: 0x2CA0, symBinAddr: 0x1000051A0, symSize: 0x14 }
  - { offsetInCU: 0xB6E9, offset: 0xB6E9, size: 0x8, addend: 0x0, symName: __ZNSt3__16vectorINS_13unordered_mapIxxNS_4hashIxEENS_8equal_toIxEENS_9allocatorINS_4pairIKxxEEEEEENS6_ISB_EEE21_ConstructTransactionD2B7v160006Ev, symObjAddr: 0x2CB4, symBinAddr: 0x1000051B4, symSize: 0x20 }
  - { offsetInCU: 0xB712, offset: 0xB712, size: 0x8, addend: 0x0, symName: __ZNSt3__128__exception_guard_exceptionsINS_6vectorINS_13unordered_mapIxxNS_4hashIxEENS_8equal_toIxEENS_9allocatorINS_4pairIKxxEEEEEENS7_ISC_EEE16__destroy_vectorEED2B7v160006Ev, symObjAddr: 0x2CD4, symBinAddr: 0x1000051D4, symSize: 0x50 }
  - { offsetInCU: 0xB739, offset: 0xB739, size: 0x8, addend: 0x0, symName: __ZNSt3__16vectorINS_13unordered_mapIxxNS_4hashIxEENS_8equal_toIxEENS_9allocatorINS_4pairIKxxEEEEEENS6_ISB_EEE16__destroy_vectorclB7v160006Ev, symObjAddr: 0x2D24, symBinAddr: 0x100005224, symSize: 0x9C }
  - { offsetInCU: 0xB75D, offset: 0xB75D, size: 0x8, addend: 0x0, symName: __ZNKSt3__16vectorINS_13unordered_mapIxxNS_4hashIxEENS_8equal_toIxEENS_9allocatorINS_4pairIKxxEEEEEENS6_ISB_EEE17__annotate_deleteB7v160006Ev, symObjAddr: 0x2DC0, symBinAddr: 0x1000052C0, symSize: 0xD4 }
  - { offsetInCU: 0xB781, offset: 0xB781, size: 0x8, addend: 0x0, symName: __ZNSt3__16vectorINS_13unordered_mapIxxNS_4hashIxEENS_8equal_toIxEENS_9allocatorINS_4pairIKxxEEEEEENS6_ISB_EEE7__clearB7v160006Ev, symObjAddr: 0x2EA4, symBinAddr: 0x1000053A4, symSize: 0x28 }
  - { offsetInCU: 0xB7A6, offset: 0xB7A6, size: 0x8, addend: 0x0, symName: __ZNSt3__116allocator_traitsINS_9allocatorINS_13unordered_mapIxxNS_4hashIxEENS_8equal_toIxEENS1_INS_4pairIKxxEEEEEEEEE10deallocateB7v160006ERSC_PSB_m, symObjAddr: 0x2ECC, symBinAddr: 0x1000053CC, symSize: 0x34 }
  - { offsetInCU: 0xB7E8, offset: 0xB7E8, size: 0x8, addend: 0x0, symName: __ZNKSt3__16vectorINS_13unordered_mapIxxNS_4hashIxEENS_8equal_toIxEENS_9allocatorINS_4pairIKxxEEEEEENS6_ISB_EEE4sizeB7v160006Ev, symObjAddr: 0x2F00, symBinAddr: 0x100005400, symSize: 0x28 }
  - { offsetInCU: 0xB80C, offset: 0xB80C, size: 0x8, addend: 0x0, symName: __ZNSt3__16vectorINS_13unordered_mapIxxNS_4hashIxEENS_8equal_toIxEENS_9allocatorINS_4pairIKxxEEEEEENS6_ISB_EEE22__base_destruct_at_endB7v160006EPSB_, symObjAddr: 0x2F28, symBinAddr: 0x100005428, symSize: 0x8C }
  - { offsetInCU: 0xB84F, offset: 0xB84F, size: 0x8, addend: 0x0, symName: __ZNSt3__116allocator_traitsINS_9allocatorINS_13unordered_mapIxxNS_4hashIxEENS_8equal_toIxEENS1_INS_4pairIKxxEEEEEEEEE7destroyB7v160006ISB_vvEEvRSC_PT_, symObjAddr: 0x2FB4, symBinAddr: 0x1000054B4, symSize: 0x28 }
  - { offsetInCU: 0xB889, offset: 0xB889, size: 0x8, addend: 0x0, symName: __ZNSt3__113unordered_mapIxxNS_4hashIxEENS_8equal_toIxEENS_9allocatorINS_4pairIKxxEEEEED1B7v160006Ev, symObjAddr: 0x3024, symBinAddr: 0x100005524, symSize: 0x2C }
  - { offsetInCU: 0xB8B1, offset: 0xB8B1, size: 0x8, addend: 0x0, symName: __ZNSt3__113unordered_mapIxxNS_4hashIxEENS_8equal_toIxEENS_9allocatorINS_4pairIKxxEEEEED2B7v160006Ev, symObjAddr: 0x3050, symBinAddr: 0x100005550, symSize: 0x2C }
  - { offsetInCU: 0xB8D8, offset: 0xB8D8, size: 0x8, addend: 0x0, symName: __ZNSt3__112__hash_tableINS_17__hash_value_typeIxxEENS_22__unordered_map_hasherIxS2_NS_4hashIxEENS_8equal_toIxEELb1EEENS_21__unordered_map_equalIxS2_S7_S5_Lb1EEENS_9allocatorIS2_EEED1Ev, symObjAddr: 0x307C, symBinAddr: 0x10000557C, symSize: 0x2C }
  - { offsetInCU: 0xB902, offset: 0xB902, size: 0x8, addend: 0x0, symName: __ZNSt3__112__hash_tableINS_17__hash_value_typeIxxEENS_22__unordered_map_hasherIxS2_NS_4hashIxEENS_8equal_toIxEELb1EEENS_21__unordered_map_equalIxS2_S7_S5_Lb1EEENS_9allocatorIS2_EEED2Ev, symObjAddr: 0x30A8, symBinAddr: 0x1000055A8, symSize: 0x58 }
  - { offsetInCU: 0xB92D, offset: 0xB92D, size: 0x8, addend: 0x0, symName: __ZNSt3__112__hash_tableINS_17__hash_value_typeIxxEENS_22__unordered_map_hasherIxS2_NS_4hashIxEENS_8equal_toIxEELb1EEENS_21__unordered_map_equalIxS2_S7_S5_Lb1EEENS_9allocatorIS2_EEE17__deallocate_nodeEPNS_16__hash_node_baseIPNS_11__hash_nodeIS2_PvEEEE, symObjAddr: 0x3100, symBinAddr: 0x100005600, symSize: 0xA8 }
  - { offsetInCU: 0xB995, offset: 0xB995, size: 0x8, addend: 0x0, symName: __ZNSt3__117__compressed_pairINS_16__hash_node_baseIPNS_11__hash_nodeINS_17__hash_value_typeIxxEEPvEEEENS_9allocatorIS6_EEE5firstB7v160006Ev, symObjAddr: 0x31A8, symBinAddr: 0x1000056A8, symSize: 0x24 }
  - { offsetInCU: 0xB9BA, offset: 0xB9BA, size: 0x8, addend: 0x0, symName: __ZNSt3__110unique_ptrIA_PNS_16__hash_node_baseIPNS_11__hash_nodeINS_17__hash_value_typeIxxEEPvEEEENS_25__bucket_list_deallocatorINS_9allocatorIS9_EEEEED1B7v160006Ev, symObjAddr: 0x31DC, symBinAddr: 0x1000056DC, symSize: 0x2C }
  - { offsetInCU: 0xB9E1, offset: 0xB9E1, size: 0x8, addend: 0x0, symName: __ZNSt3__112__hash_tableINS_17__hash_value_typeIxxEENS_22__unordered_map_hasherIxS2_NS_4hashIxEENS_8equal_toIxEELb1EEENS_21__unordered_map_equalIxS2_S7_S5_Lb1EEENS_9allocatorIS2_EEE12__node_allocB7v160006Ev, symObjAddr: 0x3208, symBinAddr: 0x100005708, symSize: 0x28 }
  - { offsetInCU: 0xBA05, offset: 0xBA05, size: 0x8, addend: 0x0, symName: __ZNSt3__116__hash_node_baseIPNS_11__hash_nodeINS_17__hash_value_typeIxxEEPvEEE8__upcastB7v160006Ev, symObjAddr: 0x3230, symBinAddr: 0x100005730, symSize: 0x24 }
  - { offsetInCU: 0xBA2A, offset: 0xBA2A, size: 0x8, addend: 0x0, symName: __ZNSt3__116allocator_traitsINS_9allocatorINS_11__hash_nodeINS_17__hash_value_typeIxxEEPvEEEEE7destroyB7v160006INS_4pairIKxxEEvvEEvRS7_PT_, symObjAddr: 0x3254, symBinAddr: 0x100005754, symSize: 0x28 }
  - { offsetInCU: 0xBA64, offset: 0xBA64, size: 0x8, addend: 0x0, symName: __ZNSt3__122__hash_key_value_typesINS_17__hash_value_typeIxxEEE9__get_ptrB7v160006ERS2_, symObjAddr: 0x327C, symBinAddr: 0x10000577C, symSize: 0x24 }
  - { offsetInCU: 0xBA87, offset: 0xBA87, size: 0x8, addend: 0x0, symName: __ZNSt3__116allocator_traitsINS_9allocatorINS_11__hash_nodeINS_17__hash_value_typeIxxEEPvEEEEE10deallocateB7v160006ERS7_PS6_m, symObjAddr: 0x32A0, symBinAddr: 0x1000057A0, symSize: 0x34 }
  - { offsetInCU: 0xBAC8, offset: 0xBAC8, size: 0x8, addend: 0x0, symName: __ZNSt3__117__compressed_pairINS_16__hash_node_baseIPNS_11__hash_nodeINS_17__hash_value_typeIxxEEPvEEEENS_9allocatorIS6_EEE6secondB7v160006Ev, symObjAddr: 0x32D4, symBinAddr: 0x1000057D4, symSize: 0x24 }
  - { offsetInCU: 0xBAED, offset: 0xBAED, size: 0x8, addend: 0x0, symName: __ZNSt3__122__compressed_pair_elemINS_9allocatorINS_11__hash_nodeINS_17__hash_value_typeIxxEEPvEEEELi1ELb1EE5__getB7v160006Ev, symObjAddr: 0x32F8, symBinAddr: 0x1000057F8, symSize: 0x14 }
  - { offsetInCU: 0xBB12, offset: 0xBB12, size: 0x8, addend: 0x0, symName: __ZNSt3__114pointer_traitsIPNS_16__hash_node_baseIPNS_11__hash_nodeINS_17__hash_value_typeIxxEEPvEEEEE10pointer_toB7v160006ERS8_, symObjAddr: 0x330C, symBinAddr: 0x10000580C, symSize: 0x14 }
  - { offsetInCU: 0xBB34, offset: 0xBB34, size: 0x8, addend: 0x0, symName: __ZNSt3__117__hash_value_typeIxxE11__get_valueB7v160006Ev, symObjAddr: 0x3354, symBinAddr: 0x100005854, symSize: 0x24 }
  - { offsetInCU: 0xBB58, offset: 0xBB58, size: 0x8, addend: 0x0, symName: __ZNSt3__19allocatorINS_11__hash_nodeINS_17__hash_value_typeIxxEEPvEEE10deallocateB7v160006EPS5_m, symObjAddr: 0x33B0, symBinAddr: 0x1000058B0, symSize: 0x40 }
  - { offsetInCU: 0xBB99, offset: 0xBB99, size: 0x8, addend: 0x0, symName: __ZNSt3__122__compressed_pair_elemINS_16__hash_node_baseIPNS_11__hash_nodeINS_17__hash_value_typeIxxEEPvEEEELi0ELb0EE5__getB7v160006Ev, symObjAddr: 0x33F0, symBinAddr: 0x1000058F0, symSize: 0x14 }
  - { offsetInCU: 0xBBBE, offset: 0xBBBE, size: 0x8, addend: 0x0, symName: __ZNSt3__110unique_ptrIA_PNS_16__hash_node_baseIPNS_11__hash_nodeINS_17__hash_value_typeIxxEEPvEEEENS_25__bucket_list_deallocatorINS_9allocatorIS9_EEEEED2B7v160006Ev, symObjAddr: 0x3404, symBinAddr: 0x100005904, symSize: 0x30 }
  - { offsetInCU: 0xBBE5, offset: 0xBBE5, size: 0x8, addend: 0x0, symName: __ZNSt3__110unique_ptrIA_PNS_16__hash_node_baseIPNS_11__hash_nodeINS_17__hash_value_typeIxxEEPvEEEENS_25__bucket_list_deallocatorINS_9allocatorIS9_EEEEE5resetB7v160006EDn, symObjAddr: 0x3434, symBinAddr: 0x100005934, symSize: 0x6C }
  - { offsetInCU: 0xBC23, offset: 0xBC23, size: 0x8, addend: 0x0, symName: __ZNSt3__117__compressed_pairIPPNS_16__hash_node_baseIPNS_11__hash_nodeINS_17__hash_value_typeIxxEEPvEEEENS_25__bucket_list_deallocatorINS_9allocatorIS9_EEEEE5firstB7v160006Ev, symObjAddr: 0x34A0, symBinAddr: 0x1000059A0, symSize: 0x24 }
  - { offsetInCU: 0xBC47, offset: 0xBC47, size: 0x8, addend: 0x0, symName: __ZNSt3__117__compressed_pairIPPNS_16__hash_node_baseIPNS_11__hash_nodeINS_17__hash_value_typeIxxEEPvEEEENS_25__bucket_list_deallocatorINS_9allocatorIS9_EEEEE6secondB7v160006Ev, symObjAddr: 0x34C4, symBinAddr: 0x1000059C4, symSize: 0x28 }
  - { offsetInCU: 0xBC6B, offset: 0xBC6B, size: 0x8, addend: 0x0, symName: __ZNSt3__125__bucket_list_deallocatorINS_9allocatorIPNS_16__hash_node_baseIPNS_11__hash_nodeINS_17__hash_value_typeIxxEEPvEEEEEEEclB7v160006EPSA_, symObjAddr: 0x34EC, symBinAddr: 0x1000059EC, symSize: 0x58 }
  - { offsetInCU: 0xBC9F, offset: 0xBC9F, size: 0x8, addend: 0x0, symName: __ZNSt3__122__compressed_pair_elemIPPNS_16__hash_node_baseIPNS_11__hash_nodeINS_17__hash_value_typeIxxEEPvEEEELi0ELb0EE5__getB7v160006Ev, symObjAddr: 0x3544, symBinAddr: 0x100005A44, symSize: 0x14 }
  - { offsetInCU: 0xBCC4, offset: 0xBCC4, size: 0x8, addend: 0x0, symName: __ZNSt3__122__compressed_pair_elemINS_25__bucket_list_deallocatorINS_9allocatorIPNS_16__hash_node_baseIPNS_11__hash_nodeINS_17__hash_value_typeIxxEEPvEEEEEEEELi1ELb0EE5__getB7v160006Ev, symObjAddr: 0x3558, symBinAddr: 0x100005A58, symSize: 0x14 }
  - { offsetInCU: 0xBCE9, offset: 0xBCE9, size: 0x8, addend: 0x0, symName: __ZNSt3__116allocator_traitsINS_9allocatorIPNS_16__hash_node_baseIPNS_11__hash_nodeINS_17__hash_value_typeIxxEEPvEEEEEEE10deallocateB7v160006ERSB_PSA_m, symObjAddr: 0x356C, symBinAddr: 0x100005A6C, symSize: 0x34 }
  - { offsetInCU: 0xBD2A, offset: 0xBD2A, size: 0x8, addend: 0x0, symName: __ZNSt3__125__bucket_list_deallocatorINS_9allocatorIPNS_16__hash_node_baseIPNS_11__hash_nodeINS_17__hash_value_typeIxxEEPvEEEEEEE7__allocB7v160006Ev, symObjAddr: 0x35A0, symBinAddr: 0x100005AA0, symSize: 0x24 }
  - { offsetInCU: 0xBD4E, offset: 0xBD4E, size: 0x8, addend: 0x0, symName: __ZNSt3__125__bucket_list_deallocatorINS_9allocatorIPNS_16__hash_node_baseIPNS_11__hash_nodeINS_17__hash_value_typeIxxEEPvEEEEEEE4sizeB7v160006Ev, symObjAddr: 0x35C4, symBinAddr: 0x100005AC4, symSize: 0x24 }
  - { offsetInCU: 0xBD72, offset: 0xBD72, size: 0x8, addend: 0x0, symName: __ZNSt3__19allocatorIPNS_16__hash_node_baseIPNS_11__hash_nodeINS_17__hash_value_typeIxxEEPvEEEEE10deallocateB7v160006EPS9_m, symObjAddr: 0x35E8, symBinAddr: 0x100005AE8, symSize: 0x40 }
  - { offsetInCU: 0xBDB2, offset: 0xBDB2, size: 0x8, addend: 0x0, symName: __ZNSt3__117__compressed_pairImNS_9allocatorIPNS_16__hash_node_baseIPNS_11__hash_nodeINS_17__hash_value_typeIxxEEPvEEEEEEE6secondB7v160006Ev, symObjAddr: 0x3628, symBinAddr: 0x100005B28, symSize: 0x24 }
  - { offsetInCU: 0xBDD7, offset: 0xBDD7, size: 0x8, addend: 0x0, symName: __ZNSt3__122__compressed_pair_elemINS_9allocatorIPNS_16__hash_node_baseIPNS_11__hash_nodeINS_17__hash_value_typeIxxEEPvEEEEEELi1ELb1EE5__getB7v160006Ev, symObjAddr: 0x364C, symBinAddr: 0x100005B4C, symSize: 0x14 }
  - { offsetInCU: 0xBDFB, offset: 0xBDFB, size: 0x8, addend: 0x0, symName: __ZNSt3__117__compressed_pairImNS_9allocatorIPNS_16__hash_node_baseIPNS_11__hash_nodeINS_17__hash_value_typeIxxEEPvEEEEEEE5firstB7v160006Ev, symObjAddr: 0x3660, symBinAddr: 0x100005B60, symSize: 0x24 }
  - { offsetInCU: 0xBE20, offset: 0xBE20, size: 0x8, addend: 0x0, symName: __ZNSt3__122__compressed_pair_elemImLi0ELb0EE5__getB7v160006Ev, symObjAddr: 0x3684, symBinAddr: 0x100005B84, symSize: 0x14 }
  - { offsetInCU: 0xBE44, offset: 0xBE44, size: 0x8, addend: 0x0, symName: __ZNSt3__19allocatorINS_13unordered_mapIxxNS_4hashIxEENS_8equal_toIxEENS0_INS_4pairIKxxEEEEEEE10deallocateB7v160006EPSA_m, symObjAddr: 0x3698, symBinAddr: 0x100005B98, symSize: 0x44 }
  - { offsetInCU: 0xBE99, offset: 0xBE99, size: 0x8, addend: 0x0, symName: __ZNSt3__112__hash_tableINS_17__hash_value_typeIxxEENS_22__unordered_map_hasherIxS2_NS_4hashIxEENS_8equal_toIxEELb1EEENS_21__unordered_map_equalIxS2_S7_S5_Lb1EEENS_9allocatorIS2_EEE25__emplace_unique_key_argsIxJRKNS_21piecewise_construct_tENS_5tupleIJRKxEEENSI_IJEEEEEENS_4pairINS_15__hash_iteratorIPNS_11__hash_nodeIS2_PvEEEEbEERKT_DpOT0_, symObjAddr: 0x36DC, symBinAddr: 0x100005BDC, symSize: 0x4D0 }
  - { offsetInCU: 0xBFA1, offset: 0xBFA1, size: 0x8, addend: 0x0, symName: __ZNKSt3__115__hash_iteratorIPNS_11__hash_nodeINS_17__hash_value_typeIxxEEPvEEEptB7v160006Ev, symObjAddr: 0x3BDC, symBinAddr: 0x1000060DC, symSize: 0x30 }
  - { offsetInCU: 0xBFC5, offset: 0xBFC5, size: 0x8, addend: 0x0, symName: __ZNSt3__112__hash_tableINS_17__hash_value_typeIxxEENS_22__unordered_map_hasherIxS2_NS_4hashIxEENS_8equal_toIxEELb1EEENS_21__unordered_map_equalIxS2_S7_S5_Lb1EEENS_9allocatorIS2_EEE13hash_functionB7v160006Ev, symObjAddr: 0x3C0C, symBinAddr: 0x10000610C, symSize: 0x28 }
  - { offsetInCU: 0xBFE9, offset: 0xBFE9, size: 0x8, addend: 0x0, symName: __ZNKSt3__122__unordered_map_hasherIxNS_17__hash_value_typeIxxEENS_4hashIxEENS_8equal_toIxEELb1EEclB7v160006ERKx, symObjAddr: 0x3C34, symBinAddr: 0x100006134, symSize: 0x30 }
  - { offsetInCU: 0xC01C, offset: 0xC01C, size: 0x8, addend: 0x0, symName: __ZNKSt3__112__hash_tableINS_17__hash_value_typeIxxEENS_22__unordered_map_hasherIxS2_NS_4hashIxEENS_8equal_toIxEELb1EEENS_21__unordered_map_equalIxS2_S7_S5_Lb1EEENS_9allocatorIS2_EEE12bucket_countB7v160006Ev, symObjAddr: 0x3C64, symBinAddr: 0x100006164, symSize: 0x28 }
  - { offsetInCU: 0xC040, offset: 0xC040, size: 0x8, addend: 0x0, symName: __ZNKSt3__110unique_ptrIA_PNS_16__hash_node_baseIPNS_11__hash_nodeINS_17__hash_value_typeIxxEEPvEEEENS_25__bucket_list_deallocatorINS_9allocatorIS9_EEEEEixB7v160006Em, symObjAddr: 0x3D24, symBinAddr: 0x100006224, symSize: 0x34 }
  - { offsetInCU: 0xC074, offset: 0xC074, size: 0x8, addend: 0x0, symName: __ZNKSt3__116__hash_node_baseIPNS_11__hash_nodeINS_17__hash_value_typeIxxEEPvEEE6__hashB7v160006Ev, symObjAddr: 0x3D58, symBinAddr: 0x100006258, symSize: 0x18 }
  - { offsetInCU: 0xC098, offset: 0xC098, size: 0x8, addend: 0x0, symName: __ZNSt3__112__hash_tableINS_17__hash_value_typeIxxEENS_22__unordered_map_hasherIxS2_NS_4hashIxEENS_8equal_toIxEELb1EEENS_21__unordered_map_equalIxS2_S7_S5_Lb1EEENS_9allocatorIS2_EEE6key_eqB7v160006Ev, symObjAddr: 0x3D70, symBinAddr: 0x100006270, symSize: 0x28 }
  - { offsetInCU: 0xC0BC, offset: 0xC0BC, size: 0x8, addend: 0x0, symName: __ZNKSt3__121__unordered_map_equalIxNS_17__hash_value_typeIxxEENS_8equal_toIxEENS_4hashIxEELb1EEclB7v160006ERKS2_RKx, symObjAddr: 0x3D98, symBinAddr: 0x100006298, symSize: 0x48 }
  - { offsetInCU: 0xC0FF, offset: 0xC0FF, size: 0x8, addend: 0x0, symName: __ZNSt3__112__hash_tableINS_17__hash_value_typeIxxEENS_22__unordered_map_hasherIxS2_NS_4hashIxEENS_8equal_toIxEELb1EEENS_21__unordered_map_equalIxS2_S7_S5_Lb1EEENS_9allocatorIS2_EEE21__construct_node_hashIRKNS_21piecewise_construct_tEJNS_5tupleIJRKxEEENSI_IJEEEEEENS_10unique_ptrINS_11__hash_nodeIS2_PvEENS_22__hash_node_destructorINSB_ISQ_EEEEEEmOT_DpOT0_, symObjAddr: 0x3DE0, symBinAddr: 0x1000062E0, symSize: 0x150 }
  - { offsetInCU: 0xC199, offset: 0xC199, size: 0x8, addend: 0x0, symName: __ZNSt3__112__hash_tableINS_17__hash_value_typeIxxEENS_22__unordered_map_hasherIxS2_NS_4hashIxEENS_8equal_toIxEELb1EEENS_21__unordered_map_equalIxS2_S7_S5_Lb1EEENS_9allocatorIS2_EEE4sizeB7v160006Ev, symObjAddr: 0x3F30, symBinAddr: 0x100006430, symSize: 0x28 }
  - { offsetInCU: 0xC1BD, offset: 0xC1BD, size: 0x8, addend: 0x0, symName: __ZNSt3__112__hash_tableINS_17__hash_value_typeIxxEENS_22__unordered_map_hasherIxS2_NS_4hashIxEENS_8equal_toIxEELb1EEENS_21__unordered_map_equalIxS2_S7_S5_Lb1EEENS_9allocatorIS2_EEE15max_load_factorB7v160006Ev, symObjAddr: 0x3F58, symBinAddr: 0x100006458, symSize: 0x28 }
  - { offsetInCU: 0xC1E1, offset: 0xC1E1, size: 0x8, addend: 0x0, symName: __ZNSt3__112__hash_tableINS_17__hash_value_typeIxxEENS_22__unordered_map_hasherIxS2_NS_4hashIxEENS_8equal_toIxEELb1EEENS_21__unordered_map_equalIxS2_S7_S5_Lb1EEENS_9allocatorIS2_EEE15__rehash_uniqueB7v160006Em, symObjAddr: 0x3F80, symBinAddr: 0x100006480, symSize: 0x2C }
  - { offsetInCU: 0xC214, offset: 0xC214, size: 0x8, addend: 0x0, symName: __Z4ceilB7v160006f, symObjAddr: 0x4028, symBinAddr: 0x100006528, symSize: 0x18 }
  - { offsetInCU: 0xC242, offset: 0xC242, size: 0x8, addend: 0x0, symName: __ZNSt3__116__hash_node_baseIPNS_11__hash_nodeINS_17__hash_value_typeIxxEEPvEEE5__ptrB7v160006Ev, symObjAddr: 0x4040, symBinAddr: 0x100006540, symSize: 0x24 }
  - { offsetInCU: 0xC266, offset: 0xC266, size: 0x8, addend: 0x0, symName: __ZNKSt3__110unique_ptrINS_11__hash_nodeINS_17__hash_value_typeIxxEEPvEENS_22__hash_node_destructorINS_9allocatorIS5_EEEEEptB7v160006Ev, symObjAddr: 0x4064, symBinAddr: 0x100006564, symSize: 0x28 }
  - { offsetInCU: 0xC28A, offset: 0xC28A, size: 0x8, addend: 0x0, symName: __ZNKSt3__110unique_ptrINS_11__hash_nodeINS_17__hash_value_typeIxxEEPvEENS_22__hash_node_destructorINS_9allocatorIS5_EEEEE3getB7v160006Ev, symObjAddr: 0x408C, symBinAddr: 0x10000658C, symSize: 0x28 }
  - { offsetInCU: 0xC2AE, offset: 0xC2AE, size: 0x8, addend: 0x0, symName: __ZNSt3__110unique_ptrINS_11__hash_nodeINS_17__hash_value_typeIxxEEPvEENS_22__hash_node_destructorINS_9allocatorIS5_EEEEE7releaseB7v160006Ev, symObjAddr: 0x40B4, symBinAddr: 0x1000065B4, symSize: 0x44 }
  - { offsetInCU: 0xC2E2, offset: 0xC2E2, size: 0x8, addend: 0x0, symName: __ZNSt3__110unique_ptrINS_11__hash_nodeINS_17__hash_value_typeIxxEEPvEENS_22__hash_node_destructorINS_9allocatorIS5_EEEEED1B7v160006Ev, symObjAddr: 0x40F8, symBinAddr: 0x1000065F8, symSize: 0x2C }
  - { offsetInCU: 0xC30A, offset: 0xC30A, size: 0x8, addend: 0x0, symName: __ZNSt3__115__hash_iteratorIPNS_11__hash_nodeINS_17__hash_value_typeIxxEEPvEEEC1B7v160006EPNS_16__hash_node_baseIS6_EEPKv, symObjAddr: 0x4124, symBinAddr: 0x100006624, symSize: 0x3C }
  - { offsetInCU: 0xC35A, offset: 0xC35A, size: 0x8, addend: 0x0, symName: __ZNSt3__14pairINS_15__hash_iteratorIPNS_11__hash_nodeINS_17__hash_value_typeIxxEEPvEEEEbEC1B7v160006IS8_RbLS5_0EEEOT_OT0_, symObjAddr: 0x4160, symBinAddr: 0x100006660, symSize: 0x3C }
  - { offsetInCU: 0xC3B5, offset: 0xC3B5, size: 0x8, addend: 0x0, symName: __ZNSt3__117__compressed_pairImNS_22__unordered_map_hasherIxNS_17__hash_value_typeIxxEENS_4hashIxEENS_8equal_toIxEELb1EEEE6secondB7v160006Ev, symObjAddr: 0x419C, symBinAddr: 0x10000669C, symSize: 0x24 }
  - { offsetInCU: 0xC3DA, offset: 0xC3DA, size: 0x8, addend: 0x0, symName: __ZNSt3__122__compressed_pair_elemINS_22__unordered_map_hasherIxNS_17__hash_value_typeIxxEENS_4hashIxEENS_8equal_toIxEELb1EEELi1ELb1EE5__getB7v160006Ev, symObjAddr: 0x41C0, symBinAddr: 0x1000066C0, symSize: 0x14 }
  - { offsetInCU: 0xC3FF, offset: 0xC3FF, size: 0x8, addend: 0x0, symName: __ZNKSt3__113__scalar_hashIxLm1EEclB7v160006Ex, symObjAddr: 0x41D4, symBinAddr: 0x1000066D4, symSize: 0x20 }
  - { offsetInCU: 0xC463, offset: 0xC463, size: 0x8, addend: 0x0, symName: __ZNKSt3__110unique_ptrIA_PNS_16__hash_node_baseIPNS_11__hash_nodeINS_17__hash_value_typeIxxEEPvEEEENS_25__bucket_list_deallocatorINS_9allocatorIS9_EEEEE11get_deleterB7v160006Ev, symObjAddr: 0x41F4, symBinAddr: 0x1000066F4, symSize: 0x24 }
  - { offsetInCU: 0xC487, offset: 0xC487, size: 0x8, addend: 0x0, symName: __ZNKSt3__125__bucket_list_deallocatorINS_9allocatorIPNS_16__hash_node_baseIPNS_11__hash_nodeINS_17__hash_value_typeIxxEEPvEEEEEEE4sizeB7v160006Ev, symObjAddr: 0x4218, symBinAddr: 0x100006718, symSize: 0x28 }
  - { offsetInCU: 0xC4AB, offset: 0xC4AB, size: 0x8, addend: 0x0, symName: __ZNKSt3__117__compressed_pairIPPNS_16__hash_node_baseIPNS_11__hash_nodeINS_17__hash_value_typeIxxEEPvEEEENS_25__bucket_list_deallocatorINS_9allocatorIS9_EEEEE6secondB7v160006Ev, symObjAddr: 0x4240, symBinAddr: 0x100006740, symSize: 0x28 }
  - { offsetInCU: 0xC4D0, offset: 0xC4D0, size: 0x8, addend: 0x0, symName: __ZNKSt3__122__compressed_pair_elemINS_25__bucket_list_deallocatorINS_9allocatorIPNS_16__hash_node_baseIPNS_11__hash_nodeINS_17__hash_value_typeIxxEEPvEEEEEEEELi1ELb0EE5__getB7v160006Ev, symObjAddr: 0x4268, symBinAddr: 0x100006768, symSize: 0x14 }
  - { offsetInCU: 0xC4F4, offset: 0xC4F4, size: 0x8, addend: 0x0, symName: __ZNKSt3__117__compressed_pairImNS_9allocatorIPNS_16__hash_node_baseIPNS_11__hash_nodeINS_17__hash_value_typeIxxEEPvEEEEEEE5firstB7v160006Ev, symObjAddr: 0x427C, symBinAddr: 0x10000677C, symSize: 0x24 }
  - { offsetInCU: 0xC519, offset: 0xC519, size: 0x8, addend: 0x0, symName: __ZNKSt3__122__compressed_pair_elemImLi0ELb0EE5__getB7v160006Ev, symObjAddr: 0x42A0, symBinAddr: 0x1000067A0, symSize: 0x14 }
  - { offsetInCU: 0xC53D, offset: 0xC53D, size: 0x8, addend: 0x0, symName: __ZNKSt3__117__compressed_pairIPPNS_16__hash_node_baseIPNS_11__hash_nodeINS_17__hash_value_typeIxxEEPvEEEENS_25__bucket_list_deallocatorINS_9allocatorIS9_EEEEE5firstB7v160006Ev, symObjAddr: 0x42B4, symBinAddr: 0x1000067B4, symSize: 0x24 }
  - { offsetInCU: 0xC562, offset: 0xC562, size: 0x8, addend: 0x0, symName: __ZNKSt3__122__compressed_pair_elemIPPNS_16__hash_node_baseIPNS_11__hash_nodeINS_17__hash_value_typeIxxEEPvEEEELi0ELb0EE5__getB7v160006Ev, symObjAddr: 0x42D8, symBinAddr: 0x1000067D8, symSize: 0x14 }
  - { offsetInCU: 0xC586, offset: 0xC586, size: 0x8, addend: 0x0, symName: __ZNSt3__117__compressed_pairIfNS_21__unordered_map_equalIxNS_17__hash_value_typeIxxEENS_8equal_toIxEENS_4hashIxEELb1EEEE6secondB7v160006Ev, symObjAddr: 0x42EC, symBinAddr: 0x1000067EC, symSize: 0x24 }
  - { offsetInCU: 0xC5AB, offset: 0xC5AB, size: 0x8, addend: 0x0, symName: __ZNSt3__122__compressed_pair_elemINS_21__unordered_map_equalIxNS_17__hash_value_typeIxxEENS_8equal_toIxEENS_4hashIxEELb1EEELi1ELb1EE5__getB7v160006Ev, symObjAddr: 0x4310, symBinAddr: 0x100006810, symSize: 0x14 }
  - { offsetInCU: 0xC5D0, offset: 0xC5D0, size: 0x8, addend: 0x0, symName: __ZNKSt3__18equal_toIxEclB7v160006ERKxS3_, symObjAddr: 0x4324, symBinAddr: 0x100006824, symSize: 0x34 }
  - { offsetInCU: 0xC612, offset: 0xC612, size: 0x8, addend: 0x0, symName: __ZNKSt3__117__hash_value_typeIxxE11__get_valueB7v160006Ev, symObjAddr: 0x4358, symBinAddr: 0x100006858, symSize: 0x24 }
  - { offsetInCU: 0xC637, offset: 0xC637, size: 0x8, addend: 0x0, symName: __ZNSt3__116allocator_traitsINS_9allocatorINS_11__hash_nodeINS_17__hash_value_typeIxxEEPvEEEEE8allocateB7v160006ERS7_m, symObjAddr: 0x43B4, symBinAddr: 0x1000068B4, symSize: 0x2C }
  - { offsetInCU: 0xC66A, offset: 0xC66A, size: 0x8, addend: 0x0, symName: __ZNSt3__122__hash_node_destructorINS_9allocatorINS_11__hash_nodeINS_17__hash_value_typeIxxEEPvEEEEEC1B7v160006ERS7_b, symObjAddr: 0x43E0, symBinAddr: 0x1000068E0, symSize: 0x48 }
  - { offsetInCU: 0xC6B5, offset: 0xC6B5, size: 0x8, addend: 0x0, symName: __ZNSt3__110unique_ptrINS_11__hash_nodeINS_17__hash_value_typeIxxEEPvEENS_22__hash_node_destructorINS_9allocatorIS5_EEEEEC1B7v160006ILb1EvEEPS5_NS_16__dependent_typeINS_27__unique_ptr_deleter_sfinaeIS9_EEXT_EE20__good_rval_ref_typeE, symObjAddr: 0x4428, symBinAddr: 0x100006928, symSize: 0x3C }
  - { offsetInCU: 0xC704, offset: 0xC704, size: 0x8, addend: 0x0, symName: __ZNSt3__116allocator_traitsINS_9allocatorINS_11__hash_nodeINS_17__hash_value_typeIxxEEPvEEEEE9constructB7v160006INS_4pairIKxxEEJRKNS_21piecewise_construct_tENS_5tupleIJRSB_EEENSG_IJEEEEvvEEvRS7_PT_DpOT0_, symObjAddr: 0x4464, symBinAddr: 0x100006964, symSize: 0x40 }
  - { offsetInCU: 0xC77F, offset: 0xC77F, size: 0x8, addend: 0x0, symName: __ZNSt3__110unique_ptrINS_11__hash_nodeINS_17__hash_value_typeIxxEEPvEENS_22__hash_node_destructorINS_9allocatorIS5_EEEEE11get_deleterB7v160006Ev, symObjAddr: 0x44A4, symBinAddr: 0x1000069A4, symSize: 0x24 }
  - { offsetInCU: 0xC7A3, offset: 0xC7A3, size: 0x8, addend: 0x0, symName: __ZNSt3__19allocatorINS_11__hash_nodeINS_17__hash_value_typeIxxEEPvEEE8allocateB7v160006Em, symObjAddr: 0x44C8, symBinAddr: 0x1000069C8, symSize: 0x58 }
  - { offsetInCU: 0xC7E0, offset: 0xC7E0, size: 0x8, addend: 0x0, symName: __ZNSt3__116allocator_traitsINS_9allocatorINS_11__hash_nodeINS_17__hash_value_typeIxxEEPvEEEEE8max_sizeB7v160006IS7_vvEEmRKS7_, symObjAddr: 0x4520, symBinAddr: 0x100006A20, symSize: 0x28 }
  - { offsetInCU: 0xC80B, offset: 0xC80B, size: 0x8, addend: 0x0, symName: __ZNSt3__122__hash_node_destructorINS_9allocatorINS_11__hash_nodeINS_17__hash_value_typeIxxEEPvEEEEEC2B7v160006ERS7_b, symObjAddr: 0x4548, symBinAddr: 0x100006A48, symSize: 0x38 }
  - { offsetInCU: 0xC852, offset: 0xC852, size: 0x8, addend: 0x0, symName: __ZNSt3__110unique_ptrINS_11__hash_nodeINS_17__hash_value_typeIxxEEPvEENS_22__hash_node_destructorINS_9allocatorIS5_EEEEEC2B7v160006ILb1EvEEPS5_NS_16__dependent_typeINS_27__unique_ptr_deleter_sfinaeIS9_EEXT_EE20__good_rval_ref_typeE, symObjAddr: 0x4580, symBinAddr: 0x100006A80, symSize: 0x48 }
  - { offsetInCU: 0xC8A1, offset: 0xC8A1, size: 0x8, addend: 0x0, symName: __ZNSt3__117__compressed_pairIPNS_11__hash_nodeINS_17__hash_value_typeIxxEEPvEENS_22__hash_node_destructorINS_9allocatorIS5_EEEEEC1B7v160006IRS6_SA_EEOT_OT0_, symObjAddr: 0x45C8, symBinAddr: 0x100006AC8, symSize: 0x3C }
  - { offsetInCU: 0xC8F7, offset: 0xC8F7, size: 0x8, addend: 0x0, symName: __ZNSt3__117__compressed_pairIPNS_11__hash_nodeINS_17__hash_value_typeIxxEEPvEENS_22__hash_node_destructorINS_9allocatorIS5_EEEEEC2B7v160006IRS6_SA_EEOT_OT0_, symObjAddr: 0x4604, symBinAddr: 0x100006B04, symSize: 0x48 }
  - { offsetInCU: 0xC94D, offset: 0xC94D, size: 0x8, addend: 0x0, symName: __ZNSt3__122__compressed_pair_elemIPNS_11__hash_nodeINS_17__hash_value_typeIxxEEPvEELi0ELb0EEC2B7v160006IRS6_vEEOT_, symObjAddr: 0x464C, symBinAddr: 0x100006B4C, symSize: 0x24 }
  - { offsetInCU: 0xC98E, offset: 0xC98E, size: 0x8, addend: 0x0, symName: __ZNSt3__122__compressed_pair_elemINS_22__hash_node_destructorINS_9allocatorINS_11__hash_nodeINS_17__hash_value_typeIxxEEPvEEEEEELi1ELb0EEC2B7v160006IS9_vEEOT_, symObjAddr: 0x4670, symBinAddr: 0x100006B70, symSize: 0x24 }
  - { offsetInCU: 0xC9CF, offset: 0xC9CF, size: 0x8, addend: 0x0, symName: __ZNSt3__14pairIKxxEC1B7v160006IJRS1_EJEEENS_21piecewise_construct_tENS_5tupleIJDpT_EEENS6_IJDpT0_EEE, symObjAddr: 0x46E4, symBinAddr: 0x100006BE4, symSize: 0x44 }
  - { offsetInCU: 0xCA34, offset: 0xCA34, size: 0x8, addend: 0x0, symName: __ZNSt3__14pairIKxxEC1B7v160006IJRS1_EJEJLm0EEJEEENS_21piecewise_construct_tERNS_5tupleIJDpT_EEERNS6_IJDpT0_EEENS_15__tuple_indicesIJXspT1_EEEENSF_IJXspT2_EEEE, symObjAddr: 0x4728, symBinAddr: 0x100006C28, symSize: 0x3C }
  - { offsetInCU: 0xCAC0, offset: 0xCAC0, size: 0x8, addend: 0x0, symName: __ZNSt3__14pairIKxxEC2B7v160006IJRS1_EJEJLm0EEJEEENS_21piecewise_construct_tERNS_5tupleIJDpT_EEERNS6_IJDpT0_EEENS_15__tuple_indicesIJXspT1_EEEENSF_IJXspT2_EEEE, symObjAddr: 0x4764, symBinAddr: 0x100006C64, symSize: 0x48 }
  - { offsetInCU: 0xCB4C, offset: 0xCB4C, size: 0x8, addend: 0x0, symName: __ZNSt3__112__tuple_leafILm0ERKxLb0EE3getB7v160006Ev, symObjAddr: 0x47D0, symBinAddr: 0x100006CD0, symSize: 0x18 }
  - { offsetInCU: 0xCB70, offset: 0xCB70, size: 0x8, addend: 0x0, symName: __ZNSt3__117__compressed_pairIPNS_11__hash_nodeINS_17__hash_value_typeIxxEEPvEENS_22__hash_node_destructorINS_9allocatorIS5_EEEEE6secondB7v160006Ev, symObjAddr: 0x47E8, symBinAddr: 0x100006CE8, symSize: 0x28 }
  - { offsetInCU: 0xCB95, offset: 0xCB95, size: 0x8, addend: 0x0, symName: __ZNSt3__122__compressed_pair_elemINS_22__hash_node_destructorINS_9allocatorINS_11__hash_nodeINS_17__hash_value_typeIxxEEPvEEEEEELi1ELb0EE5__getB7v160006Ev, symObjAddr: 0x4810, symBinAddr: 0x100006D10, symSize: 0x14 }
  - { offsetInCU: 0xCBB9, offset: 0xCBB9, size: 0x8, addend: 0x0, symName: __ZNSt3__117__compressed_pairImNS_22__unordered_map_hasherIxNS_17__hash_value_typeIxxEENS_4hashIxEENS_8equal_toIxEELb1EEEE5firstB7v160006Ev, symObjAddr: 0x4824, symBinAddr: 0x100006D24, symSize: 0x24 }
  - { offsetInCU: 0xCBDD, offset: 0xCBDD, size: 0x8, addend: 0x0, symName: __ZNSt3__117__compressed_pairIfNS_21__unordered_map_equalIxNS_17__hash_value_typeIxxEENS_8equal_toIxEENS_4hashIxEELb1EEEE5firstB7v160006Ev, symObjAddr: 0x4848, symBinAddr: 0x100006D48, symSize: 0x24 }
  - { offsetInCU: 0xCC02, offset: 0xCC02, size: 0x8, addend: 0x0, symName: __ZNSt3__122__compressed_pair_elemIfLi0ELb0EE5__getB7v160006Ev, symObjAddr: 0x486C, symBinAddr: 0x100006D6C, symSize: 0x14 }
  - { offsetInCU: 0xCC27, offset: 0xCC27, size: 0x8, addend: 0x0, symName: __ZNSt3__112__hash_tableINS_17__hash_value_typeIxxEENS_22__unordered_map_hasherIxS2_NS_4hashIxEENS_8equal_toIxEELb1EEENS_21__unordered_map_equalIxS2_S7_S5_Lb1EEENS_9allocatorIS2_EEE8__rehashILb1EEEvm, symObjAddr: 0x4880, symBinAddr: 0x100006D80, symSize: 0x1A8 }
  - { offsetInCU: 0xCC76, offset: 0xCC76, size: 0x8, addend: 0x0, symName: __ZNSt3__112__hash_tableINS_17__hash_value_typeIxxEENS_22__unordered_map_hasherIxS2_NS_4hashIxEENS_8equal_toIxEELb1EEENS_21__unordered_map_equalIxS2_S7_S5_Lb1EEENS_9allocatorIS2_EEE11__do_rehashILb1EEEvm, symObjAddr: 0x4A28, symBinAddr: 0x100006F28, symSize: 0x290 }
  - { offsetInCU: 0xCD57, offset: 0xCD57, size: 0x8, addend: 0x0, symName: __ZNSt3__110unique_ptrIA_PNS_16__hash_node_baseIPNS_11__hash_nodeINS_17__hash_value_typeIxxEEPvEEEENS_25__bucket_list_deallocatorINS_9allocatorIS9_EEEEE11get_deleterB7v160006Ev, symObjAddr: 0x4D34, symBinAddr: 0x100007234, symSize: 0x24 }
  - { offsetInCU: 0xCD7B, offset: 0xCD7B, size: 0x8, addend: 0x0, symName: __ZNSt3__110unique_ptrIA_PNS_16__hash_node_baseIPNS_11__hash_nodeINS_17__hash_value_typeIxxEEPvEEEENS_25__bucket_list_deallocatorINS_9allocatorIS9_EEEEE5resetB7v160006IPS9_EENS_9enable_ifIXsr28_CheckArrayPointerConversionIT_EE5valueEvE4typeESJ_, symObjAddr: 0x4D58, symBinAddr: 0x100007258, symSize: 0x78 }
  - { offsetInCU: 0xCDC7, offset: 0xCDC7, size: 0x8, addend: 0x0, symName: __ZNSt3__116allocator_traitsINS_9allocatorIPNS_16__hash_node_baseIPNS_11__hash_nodeINS_17__hash_value_typeIxxEEPvEEEEEEE8allocateB7v160006ERSB_m, symObjAddr: 0x4DD0, symBinAddr: 0x1000072D0, symSize: 0x2C }
  - { offsetInCU: 0xCDF9, offset: 0xCDF9, size: 0x8, addend: 0x0, symName: __ZNSt3__19allocatorIPNS_16__hash_node_baseIPNS_11__hash_nodeINS_17__hash_value_typeIxxEEPvEEEEE8allocateB7v160006Em, symObjAddr: 0x4DFC, symBinAddr: 0x1000072FC, symSize: 0x58 }
  - { offsetInCU: 0xCE36, offset: 0xCE36, size: 0x8, addend: 0x0, symName: __ZNSt3__116allocator_traitsINS_9allocatorIPNS_16__hash_node_baseIPNS_11__hash_nodeINS_17__hash_value_typeIxxEEPvEEEEEEE8max_sizeB7v160006ISB_vvEEmRKSB_, symObjAddr: 0x4E54, symBinAddr: 0x100007354, symSize: 0x28 }
  - { offsetInCU: 0xCE60, offset: 0xCE60, size: 0x8, addend: 0x0, symName: __ZNKSt3__117__compressed_pairIPNS_11__hash_nodeINS_17__hash_value_typeIxxEEPvEENS_22__hash_node_destructorINS_9allocatorIS5_EEEEE5firstB7v160006Ev, symObjAddr: 0x4EEC, symBinAddr: 0x1000073EC, symSize: 0x24 }
  - { offsetInCU: 0xCE85, offset: 0xCE85, size: 0x8, addend: 0x0, symName: __ZNKSt3__122__compressed_pair_elemIPNS_11__hash_nodeINS_17__hash_value_typeIxxEEPvEELi0ELb0EE5__getB7v160006Ev, symObjAddr: 0x4F10, symBinAddr: 0x100007410, symSize: 0x14 }
  - { offsetInCU: 0xCEA9, offset: 0xCEA9, size: 0x8, addend: 0x0, symName: __ZNSt3__117__compressed_pairIPNS_11__hash_nodeINS_17__hash_value_typeIxxEEPvEENS_22__hash_node_destructorINS_9allocatorIS5_EEEEE5firstB7v160006Ev, symObjAddr: 0x4F24, symBinAddr: 0x100007424, symSize: 0x24 }
  - { offsetInCU: 0xCECE, offset: 0xCECE, size: 0x8, addend: 0x0, symName: __ZNSt3__122__compressed_pair_elemIPNS_11__hash_nodeINS_17__hash_value_typeIxxEEPvEELi0ELb0EE5__getB7v160006Ev, symObjAddr: 0x4F48, symBinAddr: 0x100007448, symSize: 0x14 }
  - { offsetInCU: 0xCEF3, offset: 0xCEF3, size: 0x8, addend: 0x0, symName: __ZNSt3__110unique_ptrINS_11__hash_nodeINS_17__hash_value_typeIxxEEPvEENS_22__hash_node_destructorINS_9allocatorIS5_EEEEED2B7v160006Ev, symObjAddr: 0x4F5C, symBinAddr: 0x10000745C, symSize: 0x30 }
  - { offsetInCU: 0xCF1A, offset: 0xCF1A, size: 0x8, addend: 0x0, symName: __ZNSt3__110unique_ptrINS_11__hash_nodeINS_17__hash_value_typeIxxEEPvEENS_22__hash_node_destructorINS_9allocatorIS5_EEEEE5resetB7v160006EPS5_, symObjAddr: 0x4F8C, symBinAddr: 0x10000748C, symSize: 0x78 }
  - { offsetInCU: 0xCF5C, offset: 0xCF5C, size: 0x8, addend: 0x0, symName: __ZNSt3__122__hash_node_destructorINS_9allocatorINS_11__hash_nodeINS_17__hash_value_typeIxxEEPvEEEEEclB7v160006EPS6_, symObjAddr: 0x5004, symBinAddr: 0x100007504, symSize: 0x98 }
  - { offsetInCU: 0xCF90, offset: 0xCF90, size: 0x8, addend: 0x0, symName: __ZNSt3__115__hash_iteratorIPNS_11__hash_nodeINS_17__hash_value_typeIxxEEPvEEEC2B7v160006EPNS_16__hash_node_baseIS6_EEPKv, symObjAddr: 0x509C, symBinAddr: 0x10000759C, symSize: 0x24 }
  - { offsetInCU: 0xCFD7, offset: 0xCFD7, size: 0x8, addend: 0x0, symName: __ZNSt3__14pairINS_15__hash_iteratorIPNS_11__hash_nodeINS_17__hash_value_typeIxxEEPvEEEEbEC2B7v160006IS8_RbLS5_0EEEOT_OT0_, symObjAddr: 0x50C0, symBinAddr: 0x1000075C0, symSize: 0x38 }
  - { offsetInCU: 0xD034, offset: 0xD034, size: 0x8, addend: 0x0, symName: __ZNSt3__15tupleIJRKxEEC1B7v160006INS_4_AndELi0EEES2_, symObjAddr: 0x50F8, symBinAddr: 0x1000075F8, symSize: 0x34 }
  - { offsetInCU: 0xD07A, offset: 0xD07A, size: 0x8, addend: 0x0, symName: __ZNSt3__15tupleIJRKxEEC2B7v160006INS_4_AndELi0EEES2_, symObjAddr: 0x512C, symBinAddr: 0x10000762C, symSize: 0x34 }
  - { offsetInCU: 0xD0C0, offset: 0xD0C0, size: 0x8, addend: 0x0, symName: __ZNSt3__112__tuple_implINS_15__tuple_indicesIJLm0EEEEJRKxEEC1B7v160006IJLm0EEJS4_EJEJEJS4_EEENS1_IJXspT_EEEENS_13__tuple_typesIJDpT0_EEENS1_IJXspT1_EEEENS8_IJDpT2_EEEDpOT3_, symObjAddr: 0x5160, symBinAddr: 0x100007660, symSize: 0x34 }
  - { offsetInCU: 0xD14F, offset: 0xD14F, size: 0x8, addend: 0x0, symName: __ZNSt3__112__tuple_implINS_15__tuple_indicesIJLm0EEEEJRKxEEC2B7v160006IJLm0EEJS4_EJEJEJS4_EEENS1_IJXspT_EEEENS_13__tuple_typesIJDpT0_EEENS1_IJXspT1_EEEENS8_IJDpT2_EEEDpOT3_, symObjAddr: 0x5194, symBinAddr: 0x100007694, symSize: 0x34 }
  - { offsetInCU: 0xD1DE, offset: 0xD1DE, size: 0x8, addend: 0x0, symName: __ZNSt3__112__tuple_leafILm0ERKxLb0EEC2B7v160006IS2_vEEOT_, symObjAddr: 0x51C8, symBinAddr: 0x1000076C8, symSize: 0x20 }
  - { offsetInCU: 0xD220, offset: 0xD220, size: 0x8, addend: 0x0, symName: __ZNSt3__114pointer_traitsIPNS_17__hash_value_typeIxxEEE10pointer_toB7v160006ERS2_, symObjAddr: 0x51E8, symBinAddr: 0x1000076E8, symSize: 0x14 }
  - { offsetInCU: 0xD243, offset: 0xD243, size: 0x8, addend: 0x0, symName: __ZNSt3__16vectorINS_13unordered_mapIxxNS_4hashIxEENS_8equal_toIxEENS_9allocatorINS_4pairIKxxEEEEEENS6_ISB_EEED2B7v160006Ev, symObjAddr: 0x51FC, symBinAddr: 0x1000076FC, symSize: 0x44 }
  - { offsetInCU: 0xD26B, offset: 0xD26B, size: 0x8, addend: 0x0, symName: __ZNSt3__16vectorIiNS_9allocatorIiEEED2B7v160006Ev, symObjAddr: 0x5240, symBinAddr: 0x100007740, symSize: 0x44 }
...
