---
triple:          'arm64-apple-darwin'
binary-path:     '/Users/allanyin/cs/ds+algorithms/LinkedList/bin/LRUCache'
relocations:
  - { offsetInCU: 0x49, offset: 0x49, size: 0x8, addend: 0x0, symName: __ZNSt3__1L19piecewise_constructE, symObjAddr: 0x3948, symBinAddr: 0x100007CFC, symSize: 0x0 }
  - { offsetInCU: 0x4209, offset: 0x4209, size: 0x8, addend: 0x0, symName: __ZNSt3__119__debug_db_insert_cB7v160006INS_13unordered_mapIiP4NodeNS_4hashIiEENS_8equal_toIiEENS_9allocatorINS_4pairIKiS3_EEEEEEEEvPT_, symObjAddr: 0x68C, symBinAddr: 0x1000048F0, symSize: 0x10 }
  - { offsetInCU: 0x423A, offset: 0x423A, size: 0x8, addend: 0x0, symName: __ZNSt3__118__debug_db_erase_cB7v160006INS_12__hash_tableINS_17__hash_value_typeIiP4NodeEENS_22__unordered_map_hasherIiS5_NS_4hashIiEENS_8equal_toIiEELb1EEENS_21__unordered_map_equalIiS5_SA_S8_Lb1EEENS_9allocatorIS5_EEEEEEvPT_, symObjAddr: 0xE4C, symBinAddr: 0x1000050B0, symSize: 0x10 }
  - { offsetInCU: 0x429E, offset: 0x429E, size: 0x8, addend: 0x0, symName: __ZNSt3__110destroy_atB7v160006INS_4pairIKiP4NodeEELi0EEEvPT_, symObjAddr: 0xFA0, symBinAddr: 0x100005204, symSize: 0x24 }
  - { offsetInCU: 0x42D5, offset: 0x42D5, size: 0x8, addend: 0x0, symName: __ZNSt3__112__destroy_atB7v160006INS_4pairIKiP4NodeEELi0EEEvPT_, symObjAddr: 0xFC4, symBinAddr: 0x100005228, symSize: 0x10 }
  - { offsetInCU: 0x430C, offset: 0x430C, size: 0x8, addend: 0x0, symName: __ZNSt3__17launderB7v160006INS_4pairIKiP4NodeEEEEPT_S7_, symObjAddr: 0xFF8, symBinAddr: 0x10000525C, symSize: 0x24 }
  - { offsetInCU: 0x4343, offset: 0x4343, size: 0x8, addend: 0x0, symName: __ZNSt3__19__launderB7v160006INS_4pairIKiP4NodeEEEEPT_S7_, symObjAddr: 0x101C, symBinAddr: 0x100005280, symSize: 0x14 }
  - { offsetInCU: 0x437A, offset: 0x437A, size: 0x8, addend: 0x0, symName: __ZNSt3__119__libcpp_deallocateB7v160006EPvmm, symObjAddr: 0x1070, symBinAddr: 0x1000052D4, symSize: 0x60 }
  - { offsetInCU: 0x43DF, offset: 0x43DF, size: 0x8, addend: 0x0, symName: __ZNSt3__124__is_overaligned_for_newB7v160006Em, symObjAddr: 0x10D0, symBinAddr: 0x100005334, symSize: 0x20 }
  - { offsetInCU: 0x440D, offset: 0x440D, size: 0x8, addend: 0x0, symName: __ZNSt3__127__do_deallocate_handle_sizeB7v160006IJSt11align_val_tEEEvPvmDpT_, symObjAddr: 0x10F0, symBinAddr: 0x100005354, symSize: 0x30 }
  - { offsetInCU: 0x4460, offset: 0x4460, size: 0x8, addend: 0x0, symName: __ZNSt3__127__do_deallocate_handle_sizeB7v160006IJEEEvPvmDpT_, symObjAddr: 0x1120, symBinAddr: 0x100005384, symSize: 0x28 }
  - { offsetInCU: 0x449E, offset: 0x449E, size: 0x8, addend: 0x0, symName: __ZNSt3__124__libcpp_operator_deleteB7v160006IJPvSt11align_val_tEEEvDpT_, symObjAddr: 0x1148, symBinAddr: 0x1000053AC, symSize: 0x2C }
  - { offsetInCU: 0x44E7, offset: 0x44E7, size: 0x8, addend: 0x0, symName: __ZNSt3__124__libcpp_operator_deleteB7v160006IJPvEEEvDpT_, symObjAddr: 0x1174, symBinAddr: 0x1000053D8, symSize: 0x24 }
  - { offsetInCU: 0x451C, offset: 0x451C, size: 0x8, addend: 0x0, symName: __ZNSt3__1neB7v160006ERKNS_19__hash_map_iteratorINS_15__hash_iteratorIPNS_11__hash_nodeINS_17__hash_value_typeIiP4NodeEEPvEEEEEESD_, symObjAddr: 0x1440, symBinAddr: 0x1000056A4, symSize: 0x30 }
  - { offsetInCU: 0x4559, offset: 0x4559, size: 0x8, addend: 0x0, symName: __ZNSt3__1neB7v160006ERKNS_15__hash_iteratorIPNS_11__hash_nodeINS_17__hash_value_typeIiP4NodeEEPvEEEESB_, symObjAddr: 0x1594, symBinAddr: 0x1000057F8, symSize: 0x34 }
  - { offsetInCU: 0x4596, offset: 0x4596, size: 0x8, addend: 0x0, symName: __ZNSt3__1eqB7v160006ERKNS_15__hash_iteratorIPNS_11__hash_nodeINS_17__hash_value_typeIiP4NodeEEPvEEEESB_, symObjAddr: 0x15C8, symBinAddr: 0x10000582C, symSize: 0x30 }
  - { offsetInCU: 0x45D3, offset: 0x45D3, size: 0x8, addend: 0x0, symName: __ZNSt3__116__constrain_hashB7v160006Emm, symObjAddr: 0x1860, symBinAddr: 0x100005AC4, symSize: 0x98 }
  - { offsetInCU: 0x460D, offset: 0x460D, size: 0x8, addend: 0x0, symName: __ZNSt3__17launderB7v160006IKNS_4pairIKiP4NodeEEEEPT_S8_, symObjAddr: 0x1BF8, symBinAddr: 0x100005E5C, symSize: 0x24 }
  - { offsetInCU: 0x4644, offset: 0x4644, size: 0x8, addend: 0x0, symName: __ZNSt3__19__launderB7v160006IKNS_4pairIKiP4NodeEEEEPT_S8_, symObjAddr: 0x1C1C, symBinAddr: 0x100005E80, symSize: 0x14 }
  - { offsetInCU: 0x46B2, offset: 0x46B2, size: 0x8, addend: 0x0, symName: __ZNSt3__116forward_as_tupleB7v160006IJRKiEEENS_5tupleIJDpOT_EEES6_, symObjAddr: 0x2114, symBinAddr: 0x100006378, symSize: 0x2C }
  - { offsetInCU: 0x46EB, offset: 0x46EB, size: 0x8, addend: 0x0, symName: __ZNSt3__116forward_as_tupleB7v160006IJEEENS_5tupleIJDpOT_EEES4_, symObjAddr: 0x2140, symBinAddr: 0x1000063A4, symSize: 0x4 }
  - { offsetInCU: 0x470F, offset: 0x470F, size: 0x8, addend: 0x0, symName: __ZNSt3__13maxB7v160006ImEERKT_S3_S3_, symObjAddr: 0x2340, symBinAddr: 0x1000065A4, symSize: 0x2C }
  - { offsetInCU: 0x4752, offset: 0x4752, size: 0x8, addend: 0x0, symName: __ZNSt3__116__is_hash_power2B7v160006Em, symObjAddr: 0x236C, symBinAddr: 0x1000065D0, symSize: 0x50 }
  - { offsetInCU: 0x479C, offset: 0x479C, size: 0x8, addend: 0x0, symName: __ZNSt3__117__libcpp_allocateB7v160006Emm, symObjAddr: 0x26BC, symBinAddr: 0x100006920, symSize: 0x60 }
  - { offsetInCU: 0x47F6, offset: 0x47F6, size: 0x8, addend: 0x0, symName: __ZNSt3__121__libcpp_operator_newB7v160006IJmSt11align_val_tEEEPvDpT_, symObjAddr: 0x2738, symBinAddr: 0x10000699C, symSize: 0x2C }
  - { offsetInCU: 0x4843, offset: 0x4843, size: 0x8, addend: 0x0, symName: __ZNSt3__121__libcpp_operator_newB7v160006IJmEEEPvDpT_, symObjAddr: 0x2764, symBinAddr: 0x1000069C8, symSize: 0x24 }
  - { offsetInCU: 0x48A1, offset: 0x48A1, size: 0x8, addend: 0x0, symName: __ZNSt3__112construct_atB7v160006INS_4pairIKiP4NodeEEJRKNS_21piecewise_construct_tENS_5tupleIJRS2_EEENS9_IJEEEEPS5_EEPT_SF_DpOT0_, symObjAddr: 0x28D4, symBinAddr: 0x100006B38, symSize: 0x50 }
  - { offsetInCU: 0x4942, offset: 0x4942, size: 0x8, addend: 0x0, symName: __ZNSt3__13getB7v160006ILm0EJRKiEEERNS_13tuple_elementIXT_ENS_5tupleIJDpT0_EEEE4typeERS7_, symObjAddr: 0x29EC, symBinAddr: 0x100006C50, symSize: 0x24 }
  - { offsetInCU: 0x4985, offset: 0x4985, size: 0x8, addend: 0x0, symName: __ZNSt3__116__next_hash_pow2B7v160006Em, symObjAddr: 0x2EF8, symBinAddr: 0x10000715C, symSize: 0x6C }
  - { offsetInCU: 0x49B1, offset: 0x49B1, size: 0x8, addend: 0x0, symName: __ZNSt3__125__debug_db_invalidate_allB7v160006INS_12__hash_tableINS_17__hash_value_typeIiP4NodeEENS_22__unordered_map_hasherIiS5_NS_4hashIiEENS_8equal_toIiEELb1EEENS_21__unordered_map_equalIiS5_SA_S8_Lb1EEENS_9allocatorIS5_EEEEEEvPT_, symObjAddr: 0x2F64, symBinAddr: 0x1000071C8, symSize: 0x10 }
  - { offsetInCU: 0x49FE, offset: 0x49FE, size: 0x8, addend: 0x0, symName: __ZNSt3__112__libcpp_clzB7v160006Em, symObjAddr: 0x30BC, symBinAddr: 0x100007320, symSize: 0x1C }
  - { offsetInCU: 0x4A2A, offset: 0x4A2A, size: 0x8, addend: 0x0, symName: __ZNSt3__13maxB7v160006ImNS_6__lessImmEEEERKT_S5_S5_T0_, symObjAddr: 0x30D8, symBinAddr: 0x10000733C, symSize: 0x54 }
  - { offsetInCU: 0x4B33, offset: 0x4B33, size: 0x8, addend: 0x0, symName: __ZSt28__throw_bad_array_new_lengthB7v160006v, symObjAddr: 0x2688, symBinAddr: 0x1000068EC, symSize: 0x34 }
  - { offsetInCU: 0x653C, offset: 0x653C, size: 0x8, addend: 0x0, symName: _main, symObjAddr: 0x0, symBinAddr: 0x100004264, symSize: 0x104 }
  - { offsetInCU: 0x6572, offset: 0x6572, size: 0x8, addend: 0x0, symName: __ZN8LRUCacheC1Ei, symObjAddr: 0x104, symBinAddr: 0x100004368, symSize: 0x34 }
  - { offsetInCU: 0x65A8, offset: 0x65A8, size: 0x8, addend: 0x0, symName: __ZN8LRUCache3putEii, symObjAddr: 0x138, symBinAddr: 0x10000439C, symSize: 0x240 }
  - { offsetInCU: 0x6659, offset: 0x6659, size: 0x8, addend: 0x0, symName: __ZN8LRUCache3getEi, symObjAddr: 0x378, symBinAddr: 0x1000045DC, symSize: 0xD0 }
  - { offsetInCU: 0x668B, offset: 0x668B, size: 0x8, addend: 0x0, symName: __ZN8LRUCacheD1Ev, symObjAddr: 0x448, symBinAddr: 0x1000046AC, symSize: 0x2C }
  - { offsetInCU: 0x66B5, offset: 0x66B5, size: 0x8, addend: 0x0, symName: __ZN8LRUCacheC2Ei, symObjAddr: 0x474, symBinAddr: 0x1000046D8, symSize: 0x11C }
  - { offsetInCU: 0x66EB, offset: 0x66EB, size: 0x8, addend: 0x0, symName: __ZNSt3__113unordered_mapIiP4NodeNS_4hashIiEENS_8equal_toIiEENS_9allocatorINS_4pairIKiS2_EEEEEC1B7v160006Ev, symObjAddr: 0x590, symBinAddr: 0x1000047F4, symSize: 0x2C }
  - { offsetInCU: 0x6713, offset: 0x6713, size: 0x8, addend: 0x0, symName: __ZN4NodeC1Eii, symObjAddr: 0x5BC, symBinAddr: 0x100004820, symSize: 0x3C }
  - { offsetInCU: 0x6757, offset: 0x6757, size: 0x8, addend: 0x0, symName: __ZNSt3__113unordered_mapIiP4NodeNS_4hashIiEENS_8equal_toIiEENS_9allocatorINS_4pairIKiS2_EEEEED1B7v160006Ev, symObjAddr: 0x5F8, symBinAddr: 0x10000485C, symSize: 0x2C }
  - { offsetInCU: 0x677F, offset: 0x677F, size: 0x8, addend: 0x0, symName: __ZNSt3__113unordered_mapIiP4NodeNS_4hashIiEENS_8equal_toIiEENS_9allocatorINS_4pairIKiS2_EEEEEC2B7v160006Ev, symObjAddr: 0x624, symBinAddr: 0x100004888, symSize: 0x3C }
  - { offsetInCU: 0x67A7, offset: 0x67A7, size: 0x8, addend: 0x0, symName: __ZNSt3__112__hash_tableINS_17__hash_value_typeIiP4NodeEENS_22__unordered_map_hasherIiS4_NS_4hashIiEENS_8equal_toIiEELb1EEENS_21__unordered_map_equalIiS4_S9_S7_Lb1EEENS_9allocatorIS4_EEEC1Ev, symObjAddr: 0x660, symBinAddr: 0x1000048C4, symSize: 0x2C }
  - { offsetInCU: 0x67D1, offset: 0x67D1, size: 0x8, addend: 0x0, symName: __ZNSt3__112__hash_tableINS_17__hash_value_typeIiP4NodeEENS_22__unordered_map_hasherIiS4_NS_4hashIiEENS_8equal_toIiEELb1EEENS_21__unordered_map_equalIiS4_S9_S7_Lb1EEENS_9allocatorIS4_EEEC2Ev, symObjAddr: 0x6A8, symBinAddr: 0x10000490C, symSize: 0x7C }
  - { offsetInCU: 0x67FB, offset: 0x67FB, size: 0x8, addend: 0x0, symName: __ZNSt3__110unique_ptrIA_PNS_16__hash_node_baseIPNS_11__hash_nodeINS_17__hash_value_typeIiP4NodeEEPvEEEENS_25__bucket_list_deallocatorINS_9allocatorISB_EEEEEC1B7v160006ILb1EvEEv, symObjAddr: 0x724, symBinAddr: 0x100004988, symSize: 0x2C }
  - { offsetInCU: 0x682E, offset: 0x682E, size: 0x8, addend: 0x0, symName: __ZNSt3__117__compressed_pairINS_16__hash_node_baseIPNS_11__hash_nodeINS_17__hash_value_typeIiP4NodeEEPvEEEENS_9allocatorIS8_EEEC1B7v160006ILb1EvEEv, symObjAddr: 0x750, symBinAddr: 0x1000049B4, symSize: 0x2C }
  - { offsetInCU: 0x686B, offset: 0x686B, size: 0x8, addend: 0x0, symName: __ZNSt3__117__compressed_pairImNS_22__unordered_map_hasherIiNS_17__hash_value_typeIiP4NodeEENS_4hashIiEENS_8equal_toIiEELb1EEEEC1B7v160006IiNS_18__default_init_tagEEEOT_OT0_, symObjAddr: 0x77C, symBinAddr: 0x1000049E0, symSize: 0x3C }
  - { offsetInCU: 0x68C6, offset: 0x68C6, size: 0x8, addend: 0x0, symName: __ZNSt3__117__compressed_pairIfNS_21__unordered_map_equalIiNS_17__hash_value_typeIiP4NodeEENS_8equal_toIiEENS_4hashIiEELb1EEEEC1B7v160006IfNS_18__default_init_tagEEEOT_OT0_, symObjAddr: 0x7B8, symBinAddr: 0x100004A1C, symSize: 0x3C }
  - { offsetInCU: 0x691C, offset: 0x691C, size: 0x8, addend: 0x0, symName: __ZNSt3__110unique_ptrIA_PNS_16__hash_node_baseIPNS_11__hash_nodeINS_17__hash_value_typeIiP4NodeEEPvEEEENS_25__bucket_list_deallocatorINS_9allocatorISB_EEEEEC2B7v160006ILb1EvEEv, symObjAddr: 0x7F4, symBinAddr: 0x100004A58, symSize: 0x3C }
  - { offsetInCU: 0x6954, offset: 0x6954, size: 0x8, addend: 0x0, symName: __ZNSt3__117__compressed_pairIPPNS_16__hash_node_baseIPNS_11__hash_nodeINS_17__hash_value_typeIiP4NodeEEPvEEEENS_25__bucket_list_deallocatorINS_9allocatorISB_EEEEEC1B7v160006INS_16__value_init_tagESJ_EEOT_OT0_, symObjAddr: 0x830, symBinAddr: 0x100004A94, symSize: 0x3C }
  - { offsetInCU: 0x69AA, offset: 0x69AA, size: 0x8, addend: 0x0, symName: __ZNSt3__117__compressed_pairIPPNS_16__hash_node_baseIPNS_11__hash_nodeINS_17__hash_value_typeIiP4NodeEEPvEEEENS_25__bucket_list_deallocatorINS_9allocatorISB_EEEEEC2B7v160006INS_16__value_init_tagESJ_EEOT_OT0_, symObjAddr: 0x86C, symBinAddr: 0x100004AD0, symSize: 0x40 }
  - { offsetInCU: 0x6A00, offset: 0x6A00, size: 0x8, addend: 0x0, symName: __ZNSt3__122__compressed_pair_elemIPPNS_16__hash_node_baseIPNS_11__hash_nodeINS_17__hash_value_typeIiP4NodeEEPvEEEELi0ELb0EEC2B7v160006ENS_16__value_init_tagE, symObjAddr: 0x8AC, symBinAddr: 0x100004B10, symSize: 0x18 }
  - { offsetInCU: 0x6A32, offset: 0x6A32, size: 0x8, addend: 0x0, symName: __ZNSt3__122__compressed_pair_elemINS_25__bucket_list_deallocatorINS_9allocatorIPNS_16__hash_node_baseIPNS_11__hash_nodeINS_17__hash_value_typeIiP4NodeEEPvEEEEEEEELi1ELb0EEC2B7v160006ENS_16__value_init_tagE, symObjAddr: 0x8C4, symBinAddr: 0x100004B28, symSize: 0x2C }
  - { offsetInCU: 0x6A64, offset: 0x6A64, size: 0x8, addend: 0x0, symName: __ZNSt3__125__bucket_list_deallocatorINS_9allocatorIPNS_16__hash_node_baseIPNS_11__hash_nodeINS_17__hash_value_typeIiP4NodeEEPvEEEEEEEC1B7v160006Ev, symObjAddr: 0x8F0, symBinAddr: 0x100004B54, symSize: 0x2C }
  - { offsetInCU: 0x6A8C, offset: 0x6A8C, size: 0x8, addend: 0x0, symName: __ZNSt3__125__bucket_list_deallocatorINS_9allocatorIPNS_16__hash_node_baseIPNS_11__hash_nodeINS_17__hash_value_typeIiP4NodeEEPvEEEEEEEC2B7v160006Ev, symObjAddr: 0x91C, symBinAddr: 0x100004B80, symSize: 0x40 }
  - { offsetInCU: 0x6AB4, offset: 0x6AB4, size: 0x8, addend: 0x0, symName: __ZNSt3__117__compressed_pairImNS_9allocatorIPNS_16__hash_node_baseIPNS_11__hash_nodeINS_17__hash_value_typeIiP4NodeEEPvEEEEEEEC1B7v160006IiNS_18__default_init_tagEEEOT_OT0_, symObjAddr: 0x95C, symBinAddr: 0x100004BC0, symSize: 0x3C }
  - { offsetInCU: 0x6B0A, offset: 0x6B0A, size: 0x8, addend: 0x0, symName: __ZNSt3__117__compressed_pairImNS_9allocatorIPNS_16__hash_node_baseIPNS_11__hash_nodeINS_17__hash_value_typeIiP4NodeEEPvEEEEEEEC2B7v160006IiNS_18__default_init_tagEEEOT_OT0_, symObjAddr: 0x998, symBinAddr: 0x100004BFC, symSize: 0x40 }
  - { offsetInCU: 0x6B60, offset: 0x6B60, size: 0x8, addend: 0x0, symName: __ZNSt3__122__compressed_pair_elemImLi0ELb0EEC2B7v160006IivEEOT_, symObjAddr: 0x9D8, symBinAddr: 0x100004C3C, symSize: 0x24 }
  - { offsetInCU: 0x6BA0, offset: 0x6BA0, size: 0x8, addend: 0x0, symName: __ZNSt3__122__compressed_pair_elemINS_9allocatorIPNS_16__hash_node_baseIPNS_11__hash_nodeINS_17__hash_value_typeIiP4NodeEEPvEEEEEELi1ELb1EEC2B7v160006ENS_18__default_init_tagE, symObjAddr: 0x9FC, symBinAddr: 0x100004C60, symSize: 0x2C }
  - { offsetInCU: 0x6BD2, offset: 0x6BD2, size: 0x8, addend: 0x0, symName: __ZNSt3__19allocatorIPNS_16__hash_node_baseIPNS_11__hash_nodeINS_17__hash_value_typeIiP4NodeEEPvEEEEEC2B7v160006Ev, symObjAddr: 0xA28, symBinAddr: 0x100004C8C, symSize: 0x2C }
  - { offsetInCU: 0x6BFA, offset: 0x6BFA, size: 0x8, addend: 0x0, symName: __ZNSt3__116__non_trivial_ifILb1ENS_9allocatorIPNS_16__hash_node_baseIPNS_11__hash_nodeINS_17__hash_value_typeIiP4NodeEEPvEEEEEEEC2B7v160006Ev, symObjAddr: 0xA54, symBinAddr: 0x100004CB8, symSize: 0x14 }
  - { offsetInCU: 0x6C22, offset: 0x6C22, size: 0x8, addend: 0x0, symName: __ZNSt3__117__compressed_pairINS_16__hash_node_baseIPNS_11__hash_nodeINS_17__hash_value_typeIiP4NodeEEPvEEEENS_9allocatorIS8_EEEC2B7v160006ILb1EvEEv, symObjAddr: 0xA68, symBinAddr: 0x100004CCC, symSize: 0x34 }
  - { offsetInCU: 0x6C55, offset: 0x6C55, size: 0x8, addend: 0x0, symName: __ZNSt3__122__compressed_pair_elemINS_16__hash_node_baseIPNS_11__hash_nodeINS_17__hash_value_typeIiP4NodeEEPvEEEELi0ELb0EEC2B7v160006ENS_16__value_init_tagE, symObjAddr: 0xA9C, symBinAddr: 0x100004D00, symSize: 0x2C }
  - { offsetInCU: 0x6C87, offset: 0x6C87, size: 0x8, addend: 0x0, symName: __ZNSt3__122__compressed_pair_elemINS_9allocatorINS_11__hash_nodeINS_17__hash_value_typeIiP4NodeEEPvEEEELi1ELb1EEC2B7v160006ENS_16__value_init_tagE, symObjAddr: 0xAC8, symBinAddr: 0x100004D2C, symSize: 0x2C }
  - { offsetInCU: 0x6CB9, offset: 0x6CB9, size: 0x8, addend: 0x0, symName: __ZNSt3__116__hash_node_baseIPNS_11__hash_nodeINS_17__hash_value_typeIiP4NodeEEPvEEEC1B7v160006Ev, symObjAddr: 0xAF4, symBinAddr: 0x100004D58, symSize: 0x2C }
  - { offsetInCU: 0x6CE1, offset: 0x6CE1, size: 0x8, addend: 0x0, symName: __ZNSt3__116__hash_node_baseIPNS_11__hash_nodeINS_17__hash_value_typeIiP4NodeEEPvEEEC2B7v160006Ev, symObjAddr: 0xB20, symBinAddr: 0x100004D84, symSize: 0x18 }
  - { offsetInCU: 0x6D09, offset: 0x6D09, size: 0x8, addend: 0x0, symName: __ZNSt3__19allocatorINS_11__hash_nodeINS_17__hash_value_typeIiP4NodeEEPvEEEC2B7v160006Ev, symObjAddr: 0xB38, symBinAddr: 0x100004D9C, symSize: 0x2C }
  - { offsetInCU: 0x6D31, offset: 0x6D31, size: 0x8, addend: 0x0, symName: __ZNSt3__116__non_trivial_ifILb1ENS_9allocatorINS_11__hash_nodeINS_17__hash_value_typeIiP4NodeEEPvEEEEEC2B7v160006Ev, symObjAddr: 0xB64, symBinAddr: 0x100004DC8, symSize: 0x14 }
  - { offsetInCU: 0x6D59, offset: 0x6D59, size: 0x8, addend: 0x0, symName: __ZNSt3__117__compressed_pairImNS_22__unordered_map_hasherIiNS_17__hash_value_typeIiP4NodeEENS_4hashIiEENS_8equal_toIiEELb1EEEEC2B7v160006IiNS_18__default_init_tagEEEOT_OT0_, symObjAddr: 0xB78, symBinAddr: 0x100004DDC, symSize: 0x40 }
  - { offsetInCU: 0x6DAF, offset: 0x6DAF, size: 0x8, addend: 0x0, symName: __ZNSt3__122__compressed_pair_elemINS_22__unordered_map_hasherIiNS_17__hash_value_typeIiP4NodeEENS_4hashIiEENS_8equal_toIiEELb1EEELi1ELb1EEC2B7v160006ENS_18__default_init_tagE, symObjAddr: 0xBB8, symBinAddr: 0x100004E1C, symSize: 0x2C }
  - { offsetInCU: 0x6DE1, offset: 0x6DE1, size: 0x8, addend: 0x0, symName: __ZNSt3__122__unordered_map_hasherIiNS_17__hash_value_typeIiP4NodeEENS_4hashIiEENS_8equal_toIiEELb1EEC2B7v160006Ev, symObjAddr: 0xBE4, symBinAddr: 0x100004E48, symSize: 0x14 }
  - { offsetInCU: 0x6E09, offset: 0x6E09, size: 0x8, addend: 0x0, symName: __ZNSt3__117__compressed_pairIfNS_21__unordered_map_equalIiNS_17__hash_value_typeIiP4NodeEENS_8equal_toIiEENS_4hashIiEELb1EEEEC2B7v160006IfNS_18__default_init_tagEEEOT_OT0_, symObjAddr: 0xBF8, symBinAddr: 0x100004E5C, symSize: 0x40 }
  - { offsetInCU: 0x6E5F, offset: 0x6E5F, size: 0x8, addend: 0x0, symName: __ZNSt3__122__compressed_pair_elemIfLi0ELb0EEC2B7v160006IfvEEOT_, symObjAddr: 0xC38, symBinAddr: 0x100004E9C, symSize: 0x24 }
  - { offsetInCU: 0x6E9F, offset: 0x6E9F, size: 0x8, addend: 0x0, symName: __ZNSt3__122__compressed_pair_elemINS_21__unordered_map_equalIiNS_17__hash_value_typeIiP4NodeEENS_8equal_toIiEENS_4hashIiEELb1EEELi1ELb1EEC2B7v160006ENS_18__default_init_tagE, symObjAddr: 0xC5C, symBinAddr: 0x100004EC0, symSize: 0x2C }
  - { offsetInCU: 0x6ED1, offset: 0x6ED1, size: 0x8, addend: 0x0, symName: __ZNSt3__121__unordered_map_equalIiNS_17__hash_value_typeIiP4NodeEENS_8equal_toIiEENS_4hashIiEELb1EEC2B7v160006Ev, symObjAddr: 0xC88, symBinAddr: 0x100004EEC, symSize: 0x14 }
  - { offsetInCU: 0x6EF9, offset: 0x6EF9, size: 0x8, addend: 0x0, symName: __ZN4NodeC2Eii, symObjAddr: 0xC9C, symBinAddr: 0x100004F00, symSize: 0x34 }
  - { offsetInCU: 0x6F3D, offset: 0x6F3D, size: 0x8, addend: 0x0, symName: __ZNSt3__113unordered_mapIiP4NodeNS_4hashIiEENS_8equal_toIiEENS_9allocatorINS_4pairIKiS2_EEEEED2B7v160006Ev, symObjAddr: 0xCD0, symBinAddr: 0x100004F34, symSize: 0x2C }
  - { offsetInCU: 0x6F65, offset: 0x6F65, size: 0x8, addend: 0x0, symName: __ZNSt3__112__hash_tableINS_17__hash_value_typeIiP4NodeEENS_22__unordered_map_hasherIiS4_NS_4hashIiEENS_8equal_toIiEELb1EEENS_21__unordered_map_equalIiS4_S9_S7_Lb1EEENS_9allocatorIS4_EEED1Ev, symObjAddr: 0xCFC, symBinAddr: 0x100004F60, symSize: 0x2C }
  - { offsetInCU: 0x6F8F, offset: 0x6F8F, size: 0x8, addend: 0x0, symName: __ZNSt3__112__hash_tableINS_17__hash_value_typeIiP4NodeEENS_22__unordered_map_hasherIiS4_NS_4hashIiEENS_8equal_toIiEELb1EEENS_21__unordered_map_equalIiS4_S9_S7_Lb1EEENS_9allocatorIS4_EEED2Ev, symObjAddr: 0xD28, symBinAddr: 0x100004F8C, symSize: 0x58 }
  - { offsetInCU: 0x6FB9, offset: 0x6FB9, size: 0x8, addend: 0x0, symName: __ZNSt3__112__hash_tableINS_17__hash_value_typeIiP4NodeEENS_22__unordered_map_hasherIiS4_NS_4hashIiEENS_8equal_toIiEELb1EEENS_21__unordered_map_equalIiS4_S9_S7_Lb1EEENS_9allocatorIS4_EEE17__deallocate_nodeEPNS_16__hash_node_baseIPNS_11__hash_nodeIS4_PvEEEE, symObjAddr: 0xD80, symBinAddr: 0x100004FE4, symSize: 0xA8 }
  - { offsetInCU: 0x7021, offset: 0x7021, size: 0x8, addend: 0x0, symName: __ZNSt3__117__compressed_pairINS_16__hash_node_baseIPNS_11__hash_nodeINS_17__hash_value_typeIiP4NodeEEPvEEEENS_9allocatorIS8_EEE5firstB7v160006Ev, symObjAddr: 0xE28, symBinAddr: 0x10000508C, symSize: 0x24 }
  - { offsetInCU: 0x7045, offset: 0x7045, size: 0x8, addend: 0x0, symName: __ZNSt3__110unique_ptrIA_PNS_16__hash_node_baseIPNS_11__hash_nodeINS_17__hash_value_typeIiP4NodeEEPvEEEENS_25__bucket_list_deallocatorINS_9allocatorISB_EEEEED1B7v160006Ev, symObjAddr: 0xE5C, symBinAddr: 0x1000050C0, symSize: 0x2C }
  - { offsetInCU: 0x706D, offset: 0x706D, size: 0x8, addend: 0x0, symName: __ZNSt3__112__hash_tableINS_17__hash_value_typeIiP4NodeEENS_22__unordered_map_hasherIiS4_NS_4hashIiEENS_8equal_toIiEELb1EEENS_21__unordered_map_equalIiS4_S9_S7_Lb1EEENS_9allocatorIS4_EEE12__node_allocB7v160006Ev, symObjAddr: 0xE88, symBinAddr: 0x1000050EC, symSize: 0x28 }
  - { offsetInCU: 0x7091, offset: 0x7091, size: 0x8, addend: 0x0, symName: __ZNSt3__116__hash_node_baseIPNS_11__hash_nodeINS_17__hash_value_typeIiP4NodeEEPvEEE8__upcastB7v160006Ev, symObjAddr: 0xEB0, symBinAddr: 0x100005114, symSize: 0x24 }
  - { offsetInCU: 0x70B5, offset: 0x70B5, size: 0x8, addend: 0x0, symName: __ZNSt3__116allocator_traitsINS_9allocatorINS_11__hash_nodeINS_17__hash_value_typeIiP4NodeEEPvEEEEE7destroyB7v160006INS_4pairIKiS5_EEvvEEvRS9_PT_, symObjAddr: 0xED4, symBinAddr: 0x100005138, symSize: 0x28 }
  - { offsetInCU: 0x70EE, offset: 0x70EE, size: 0x8, addend: 0x0, symName: __ZNSt3__122__hash_key_value_typesINS_17__hash_value_typeIiP4NodeEEE9__get_ptrB7v160006ERS4_, symObjAddr: 0xEFC, symBinAddr: 0x100005160, symSize: 0x24 }
  - { offsetInCU: 0x7110, offset: 0x7110, size: 0x8, addend: 0x0, symName: __ZNSt3__116allocator_traitsINS_9allocatorINS_11__hash_nodeINS_17__hash_value_typeIiP4NodeEEPvEEEEE10deallocateB7v160006ERS9_PS8_m, symObjAddr: 0xF20, symBinAddr: 0x100005184, symSize: 0x34 }
  - { offsetInCU: 0x7151, offset: 0x7151, size: 0x8, addend: 0x0, symName: __ZNSt3__117__compressed_pairINS_16__hash_node_baseIPNS_11__hash_nodeINS_17__hash_value_typeIiP4NodeEEPvEEEENS_9allocatorIS8_EEE6secondB7v160006Ev, symObjAddr: 0xF54, symBinAddr: 0x1000051B8, symSize: 0x24 }
  - { offsetInCU: 0x7175, offset: 0x7175, size: 0x8, addend: 0x0, symName: __ZNSt3__122__compressed_pair_elemINS_9allocatorINS_11__hash_nodeINS_17__hash_value_typeIiP4NodeEEPvEEEELi1ELb1EE5__getB7v160006Ev, symObjAddr: 0xF78, symBinAddr: 0x1000051DC, symSize: 0x14 }
  - { offsetInCU: 0x7199, offset: 0x7199, size: 0x8, addend: 0x0, symName: __ZNSt3__114pointer_traitsIPNS_16__hash_node_baseIPNS_11__hash_nodeINS_17__hash_value_typeIiP4NodeEEPvEEEEE10pointer_toB7v160006ERSA_, symObjAddr: 0xF8C, symBinAddr: 0x1000051F0, symSize: 0x14 }
  - { offsetInCU: 0x71BB, offset: 0x71BB, size: 0x8, addend: 0x0, symName: __ZNSt3__117__hash_value_typeIiP4NodeE11__get_valueB7v160006Ev, symObjAddr: 0xFD4, symBinAddr: 0x100005238, symSize: 0x24 }
  - { offsetInCU: 0x71DF, offset: 0x71DF, size: 0x8, addend: 0x0, symName: __ZNSt3__19allocatorINS_11__hash_nodeINS_17__hash_value_typeIiP4NodeEEPvEEE10deallocateB7v160006EPS7_m, symObjAddr: 0x1030, symBinAddr: 0x100005294, symSize: 0x40 }
  - { offsetInCU: 0x721F, offset: 0x721F, size: 0x8, addend: 0x0, symName: __ZNSt3__122__compressed_pair_elemINS_16__hash_node_baseIPNS_11__hash_nodeINS_17__hash_value_typeIiP4NodeEEPvEEEELi0ELb0EE5__getB7v160006Ev, symObjAddr: 0x1198, symBinAddr: 0x1000053FC, symSize: 0x14 }
  - { offsetInCU: 0x7243, offset: 0x7243, size: 0x8, addend: 0x0, symName: __ZNSt3__110unique_ptrIA_PNS_16__hash_node_baseIPNS_11__hash_nodeINS_17__hash_value_typeIiP4NodeEEPvEEEENS_25__bucket_list_deallocatorINS_9allocatorISB_EEEEED2B7v160006Ev, symObjAddr: 0x11AC, symBinAddr: 0x100005410, symSize: 0x30 }
  - { offsetInCU: 0x726B, offset: 0x726B, size: 0x8, addend: 0x0, symName: __ZNSt3__110unique_ptrIA_PNS_16__hash_node_baseIPNS_11__hash_nodeINS_17__hash_value_typeIiP4NodeEEPvEEEENS_25__bucket_list_deallocatorINS_9allocatorISB_EEEEE5resetB7v160006EDn, symObjAddr: 0x11DC, symBinAddr: 0x100005440, symSize: 0x6C }
  - { offsetInCU: 0x72A9, offset: 0x72A9, size: 0x8, addend: 0x0, symName: __ZNSt3__117__compressed_pairIPPNS_16__hash_node_baseIPNS_11__hash_nodeINS_17__hash_value_typeIiP4NodeEEPvEEEENS_25__bucket_list_deallocatorINS_9allocatorISB_EEEEE5firstB7v160006Ev, symObjAddr: 0x1248, symBinAddr: 0x1000054AC, symSize: 0x24 }
  - { offsetInCU: 0x72CD, offset: 0x72CD, size: 0x8, addend: 0x0, symName: __ZNSt3__117__compressed_pairIPPNS_16__hash_node_baseIPNS_11__hash_nodeINS_17__hash_value_typeIiP4NodeEEPvEEEENS_25__bucket_list_deallocatorINS_9allocatorISB_EEEEE6secondB7v160006Ev, symObjAddr: 0x126C, symBinAddr: 0x1000054D0, symSize: 0x28 }
  - { offsetInCU: 0x72F1, offset: 0x72F1, size: 0x8, addend: 0x0, symName: __ZNSt3__125__bucket_list_deallocatorINS_9allocatorIPNS_16__hash_node_baseIPNS_11__hash_nodeINS_17__hash_value_typeIiP4NodeEEPvEEEEEEEclB7v160006EPSC_, symObjAddr: 0x1294, symBinAddr: 0x1000054F8, symSize: 0x58 }
  - { offsetInCU: 0x7324, offset: 0x7324, size: 0x8, addend: 0x0, symName: __ZNSt3__122__compressed_pair_elemIPPNS_16__hash_node_baseIPNS_11__hash_nodeINS_17__hash_value_typeIiP4NodeEEPvEEEELi0ELb0EE5__getB7v160006Ev, symObjAddr: 0x12EC, symBinAddr: 0x100005550, symSize: 0x14 }
  - { offsetInCU: 0x7348, offset: 0x7348, size: 0x8, addend: 0x0, symName: __ZNSt3__122__compressed_pair_elemINS_25__bucket_list_deallocatorINS_9allocatorIPNS_16__hash_node_baseIPNS_11__hash_nodeINS_17__hash_value_typeIiP4NodeEEPvEEEEEEEELi1ELb0EE5__getB7v160006Ev, symObjAddr: 0x1300, symBinAddr: 0x100005564, symSize: 0x14 }
  - { offsetInCU: 0x736C, offset: 0x736C, size: 0x8, addend: 0x0, symName: __ZNSt3__116allocator_traitsINS_9allocatorIPNS_16__hash_node_baseIPNS_11__hash_nodeINS_17__hash_value_typeIiP4NodeEEPvEEEEEEE10deallocateB7v160006ERSD_PSC_m, symObjAddr: 0x1314, symBinAddr: 0x100005578, symSize: 0x34 }
  - { offsetInCU: 0x73AD, offset: 0x73AD, size: 0x8, addend: 0x0, symName: __ZNSt3__125__bucket_list_deallocatorINS_9allocatorIPNS_16__hash_node_baseIPNS_11__hash_nodeINS_17__hash_value_typeIiP4NodeEEPvEEEEEEE7__allocB7v160006Ev, symObjAddr: 0x1348, symBinAddr: 0x1000055AC, symSize: 0x24 }
  - { offsetInCU: 0x73D1, offset: 0x73D1, size: 0x8, addend: 0x0, symName: __ZNSt3__125__bucket_list_deallocatorINS_9allocatorIPNS_16__hash_node_baseIPNS_11__hash_nodeINS_17__hash_value_typeIiP4NodeEEPvEEEEEEE4sizeB7v160006Ev, symObjAddr: 0x136C, symBinAddr: 0x1000055D0, symSize: 0x24 }
  - { offsetInCU: 0x73F5, offset: 0x73F5, size: 0x8, addend: 0x0, symName: __ZNSt3__19allocatorIPNS_16__hash_node_baseIPNS_11__hash_nodeINS_17__hash_value_typeIiP4NodeEEPvEEEEE10deallocateB7v160006EPSB_m, symObjAddr: 0x1390, symBinAddr: 0x1000055F4, symSize: 0x40 }
  - { offsetInCU: 0x7435, offset: 0x7435, size: 0x8, addend: 0x0, symName: __ZNSt3__117__compressed_pairImNS_9allocatorIPNS_16__hash_node_baseIPNS_11__hash_nodeINS_17__hash_value_typeIiP4NodeEEPvEEEEEEE6secondB7v160006Ev, symObjAddr: 0x13D0, symBinAddr: 0x100005634, symSize: 0x24 }
  - { offsetInCU: 0x7459, offset: 0x7459, size: 0x8, addend: 0x0, symName: __ZNSt3__122__compressed_pair_elemINS_9allocatorIPNS_16__hash_node_baseIPNS_11__hash_nodeINS_17__hash_value_typeIiP4NodeEEPvEEEEEELi1ELb1EE5__getB7v160006Ev, symObjAddr: 0x13F4, symBinAddr: 0x100005658, symSize: 0x14 }
  - { offsetInCU: 0x747D, offset: 0x747D, size: 0x8, addend: 0x0, symName: __ZNSt3__117__compressed_pairImNS_9allocatorIPNS_16__hash_node_baseIPNS_11__hash_nodeINS_17__hash_value_typeIiP4NodeEEPvEEEEEEE5firstB7v160006Ev, symObjAddr: 0x1408, symBinAddr: 0x10000566C, symSize: 0x24 }
  - { offsetInCU: 0x74A1, offset: 0x74A1, size: 0x8, addend: 0x0, symName: __ZNSt3__122__compressed_pair_elemImLi0ELb0EE5__getB7v160006Ev, symObjAddr: 0x142C, symBinAddr: 0x100005690, symSize: 0x14 }
  - { offsetInCU: 0x74C5, offset: 0x74C5, size: 0x8, addend: 0x0, symName: __ZNSt3__113unordered_mapIiP4NodeNS_4hashIiEENS_8equal_toIiEENS_9allocatorINS_4pairIKiS2_EEEEE4findB7v160006ERS9_, symObjAddr: 0x1470, symBinAddr: 0x1000056D4, symSize: 0x40 }
  - { offsetInCU: 0x74F8, offset: 0x74F8, size: 0x8, addend: 0x0, symName: __ZNSt3__113unordered_mapIiP4NodeNS_4hashIiEENS_8equal_toIiEENS_9allocatorINS_4pairIKiS2_EEEEE3endB7v160006Ev, symObjAddr: 0x14B0, symBinAddr: 0x100005714, symSize: 0x38 }
  - { offsetInCU: 0x751C, offset: 0x751C, size: 0x8, addend: 0x0, symName: __ZNSt3__113unordered_mapIiP4NodeNS_4hashIiEENS_8equal_toIiEENS_9allocatorINS_4pairIKiS2_EEEEEixERS9_, symObjAddr: 0x14E8, symBinAddr: 0x10000574C, symSize: 0x80 }
  - { offsetInCU: 0x7551, offset: 0x7551, size: 0x8, addend: 0x0, symName: __ZNSt3__113unordered_mapIiP4NodeNS_4hashIiEENS_8equal_toIiEENS_9allocatorINS_4pairIKiS2_EEEEE5eraseB7v160006ERS9_, symObjAddr: 0x1568, symBinAddr: 0x1000057CC, symSize: 0x2C }
  - { offsetInCU: 0x7584, offset: 0x7584, size: 0x8, addend: 0x0, symName: __ZNSt3__112__hash_tableINS_17__hash_value_typeIiP4NodeEENS_22__unordered_map_hasherIiS4_NS_4hashIiEENS_8equal_toIiEELb1EEENS_21__unordered_map_equalIiS4_S9_S7_Lb1EEENS_9allocatorIS4_EEE4findIiEENS_15__hash_iteratorIPNS_11__hash_nodeIS4_PvEEEERKT_, symObjAddr: 0x15F8, symBinAddr: 0x10000585C, symSize: 0x1B4 }
  - { offsetInCU: 0x760C, offset: 0x760C, size: 0x8, addend: 0x0, symName: __ZNSt3__119__hash_map_iteratorINS_15__hash_iteratorIPNS_11__hash_nodeINS_17__hash_value_typeIiP4NodeEEPvEEEEEC1B7v160006ESA_, symObjAddr: 0x17AC, symBinAddr: 0x100005A10, symSize: 0x34 }
  - { offsetInCU: 0x7643, offset: 0x7643, size: 0x8, addend: 0x0, symName: __ZNSt3__112__hash_tableINS_17__hash_value_typeIiP4NodeEENS_22__unordered_map_hasherIiS4_NS_4hashIiEENS_8equal_toIiEELb1EEENS_21__unordered_map_equalIiS4_S9_S7_Lb1EEENS_9allocatorIS4_EEE13hash_functionB7v160006Ev, symObjAddr: 0x17E0, symBinAddr: 0x100005A44, symSize: 0x28 }
  - { offsetInCU: 0x7667, offset: 0x7667, size: 0x8, addend: 0x0, symName: __ZNKSt3__122__unordered_map_hasherIiNS_17__hash_value_typeIiP4NodeEENS_4hashIiEENS_8equal_toIiEELb1EEclB7v160006ERKi, symObjAddr: 0x1808, symBinAddr: 0x100005A6C, symSize: 0x30 }
  - { offsetInCU: 0x769A, offset: 0x769A, size: 0x8, addend: 0x0, symName: __ZNKSt3__112__hash_tableINS_17__hash_value_typeIiP4NodeEENS_22__unordered_map_hasherIiS4_NS_4hashIiEENS_8equal_toIiEELb1EEENS_21__unordered_map_equalIiS4_S9_S7_Lb1EEENS_9allocatorIS4_EEE12bucket_countB7v160006Ev, symObjAddr: 0x1838, symBinAddr: 0x100005A9C, symSize: 0x28 }
  - { offsetInCU: 0x76BE, offset: 0x76BE, size: 0x8, addend: 0x0, symName: __ZNKSt3__110unique_ptrIA_PNS_16__hash_node_baseIPNS_11__hash_nodeINS_17__hash_value_typeIiP4NodeEEPvEEEENS_25__bucket_list_deallocatorINS_9allocatorISB_EEEEEixB7v160006Em, symObjAddr: 0x18F8, symBinAddr: 0x100005B5C, symSize: 0x34 }
  - { offsetInCU: 0x76F1, offset: 0x76F1, size: 0x8, addend: 0x0, symName: __ZNKSt3__116__hash_node_baseIPNS_11__hash_nodeINS_17__hash_value_typeIiP4NodeEEPvEEE6__hashB7v160006Ev, symObjAddr: 0x192C, symBinAddr: 0x100005B90, symSize: 0x18 }
  - { offsetInCU: 0x7715, offset: 0x7715, size: 0x8, addend: 0x0, symName: __ZNSt3__112__hash_tableINS_17__hash_value_typeIiP4NodeEENS_22__unordered_map_hasherIiS4_NS_4hashIiEENS_8equal_toIiEELb1EEENS_21__unordered_map_equalIiS4_S9_S7_Lb1EEENS_9allocatorIS4_EEE6key_eqB7v160006Ev, symObjAddr: 0x1944, symBinAddr: 0x100005BA8, symSize: 0x28 }
  - { offsetInCU: 0x7739, offset: 0x7739, size: 0x8, addend: 0x0, symName: __ZNKSt3__121__unordered_map_equalIiNS_17__hash_value_typeIiP4NodeEENS_8equal_toIiEENS_4hashIiEELb1EEclB7v160006ERKS4_RKi, symObjAddr: 0x196C, symBinAddr: 0x100005BD0, symSize: 0x48 }
  - { offsetInCU: 0x777B, offset: 0x777B, size: 0x8, addend: 0x0, symName: __ZNSt3__115__hash_iteratorIPNS_11__hash_nodeINS_17__hash_value_typeIiP4NodeEEPvEEEC1B7v160006EPNS_16__hash_node_baseIS8_EEPKv, symObjAddr: 0x19B4, symBinAddr: 0x100005C18, symSize: 0x3C }
  - { offsetInCU: 0x77C1, offset: 0x77C1, size: 0x8, addend: 0x0, symName: __ZNSt3__112__hash_tableINS_17__hash_value_typeIiP4NodeEENS_22__unordered_map_hasherIiS4_NS_4hashIiEENS_8equal_toIiEELb1EEENS_21__unordered_map_equalIiS4_S9_S7_Lb1EEENS_9allocatorIS4_EEE3endEv, symObjAddr: 0x19F0, symBinAddr: 0x100005C54, symSize: 0x30 }
  - { offsetInCU: 0x77E7, offset: 0x77E7, size: 0x8, addend: 0x0, symName: __ZNSt3__117__compressed_pairImNS_22__unordered_map_hasherIiNS_17__hash_value_typeIiP4NodeEENS_4hashIiEENS_8equal_toIiEELb1EEEE6secondB7v160006Ev, symObjAddr: 0x1A20, symBinAddr: 0x100005C84, symSize: 0x24 }
  - { offsetInCU: 0x780B, offset: 0x780B, size: 0x8, addend: 0x0, symName: __ZNSt3__122__compressed_pair_elemINS_22__unordered_map_hasherIiNS_17__hash_value_typeIiP4NodeEENS_4hashIiEENS_8equal_toIiEELb1EEELi1ELb1EE5__getB7v160006Ev, symObjAddr: 0x1A44, symBinAddr: 0x100005CA8, symSize: 0x14 }
  - { offsetInCU: 0x782F, offset: 0x782F, size: 0x8, addend: 0x0, symName: __ZNKSt3__14hashIiEclB7v160006Ei, symObjAddr: 0x1A58, symBinAddr: 0x100005CBC, symSize: 0x18 }
  - { offsetInCU: 0x7862, offset: 0x7862, size: 0x8, addend: 0x0, symName: __ZNKSt3__110unique_ptrIA_PNS_16__hash_node_baseIPNS_11__hash_nodeINS_17__hash_value_typeIiP4NodeEEPvEEEENS_25__bucket_list_deallocatorINS_9allocatorISB_EEEEE11get_deleterB7v160006Ev, symObjAddr: 0x1A70, symBinAddr: 0x100005CD4, symSize: 0x24 }
  - { offsetInCU: 0x7886, offset: 0x7886, size: 0x8, addend: 0x0, symName: __ZNKSt3__125__bucket_list_deallocatorINS_9allocatorIPNS_16__hash_node_baseIPNS_11__hash_nodeINS_17__hash_value_typeIiP4NodeEEPvEEEEEEE4sizeB7v160006Ev, symObjAddr: 0x1A94, symBinAddr: 0x100005CF8, symSize: 0x28 }
  - { offsetInCU: 0x78AA, offset: 0x78AA, size: 0x8, addend: 0x0, symName: __ZNKSt3__117__compressed_pairIPPNS_16__hash_node_baseIPNS_11__hash_nodeINS_17__hash_value_typeIiP4NodeEEPvEEEENS_25__bucket_list_deallocatorINS_9allocatorISB_EEEEE6secondB7v160006Ev, symObjAddr: 0x1ABC, symBinAddr: 0x100005D20, symSize: 0x28 }
  - { offsetInCU: 0x78CE, offset: 0x78CE, size: 0x8, addend: 0x0, symName: __ZNKSt3__122__compressed_pair_elemINS_25__bucket_list_deallocatorINS_9allocatorIPNS_16__hash_node_baseIPNS_11__hash_nodeINS_17__hash_value_typeIiP4NodeEEPvEEEEEEEELi1ELb0EE5__getB7v160006Ev, symObjAddr: 0x1AE4, symBinAddr: 0x100005D48, symSize: 0x14 }
  - { offsetInCU: 0x78F2, offset: 0x78F2, size: 0x8, addend: 0x0, symName: __ZNKSt3__117__compressed_pairImNS_9allocatorIPNS_16__hash_node_baseIPNS_11__hash_nodeINS_17__hash_value_typeIiP4NodeEEPvEEEEEEE5firstB7v160006Ev, symObjAddr: 0x1AF8, symBinAddr: 0x100005D5C, symSize: 0x24 }
  - { offsetInCU: 0x7916, offset: 0x7916, size: 0x8, addend: 0x0, symName: __ZNKSt3__122__compressed_pair_elemImLi0ELb0EE5__getB7v160006Ev, symObjAddr: 0x1B1C, symBinAddr: 0x100005D80, symSize: 0x14 }
  - { offsetInCU: 0x793A, offset: 0x793A, size: 0x8, addend: 0x0, symName: __ZNKSt3__117__compressed_pairIPPNS_16__hash_node_baseIPNS_11__hash_nodeINS_17__hash_value_typeIiP4NodeEEPvEEEENS_25__bucket_list_deallocatorINS_9allocatorISB_EEEEE5firstB7v160006Ev, symObjAddr: 0x1B30, symBinAddr: 0x100005D94, symSize: 0x24 }
  - { offsetInCU: 0x795E, offset: 0x795E, size: 0x8, addend: 0x0, symName: __ZNKSt3__122__compressed_pair_elemIPPNS_16__hash_node_baseIPNS_11__hash_nodeINS_17__hash_value_typeIiP4NodeEEPvEEEELi0ELb0EE5__getB7v160006Ev, symObjAddr: 0x1B54, symBinAddr: 0x100005DB8, symSize: 0x14 }
  - { offsetInCU: 0x7982, offset: 0x7982, size: 0x8, addend: 0x0, symName: __ZNSt3__117__compressed_pairIfNS_21__unordered_map_equalIiNS_17__hash_value_typeIiP4NodeEENS_8equal_toIiEENS_4hashIiEELb1EEEE6secondB7v160006Ev, symObjAddr: 0x1B68, symBinAddr: 0x100005DCC, symSize: 0x24 }
  - { offsetInCU: 0x79A6, offset: 0x79A6, size: 0x8, addend: 0x0, symName: __ZNSt3__122__compressed_pair_elemINS_21__unordered_map_equalIiNS_17__hash_value_typeIiP4NodeEENS_8equal_toIiEENS_4hashIiEELb1EEELi1ELb1EE5__getB7v160006Ev, symObjAddr: 0x1B8C, symBinAddr: 0x100005DF0, symSize: 0x14 }
  - { offsetInCU: 0x79CA, offset: 0x79CA, size: 0x8, addend: 0x0, symName: __ZNKSt3__18equal_toIiEclB7v160006ERKiS3_, symObjAddr: 0x1BA0, symBinAddr: 0x100005E04, symSize: 0x34 }
  - { offsetInCU: 0x7A0C, offset: 0x7A0C, size: 0x8, addend: 0x0, symName: __ZNKSt3__117__hash_value_typeIiP4NodeE11__get_valueB7v160006Ev, symObjAddr: 0x1BD4, symBinAddr: 0x100005E38, symSize: 0x24 }
  - { offsetInCU: 0x7A30, offset: 0x7A30, size: 0x8, addend: 0x0, symName: __ZNSt3__115__hash_iteratorIPNS_11__hash_nodeINS_17__hash_value_typeIiP4NodeEEPvEEEC2B7v160006EPNS_16__hash_node_baseIS8_EEPKv, symObjAddr: 0x1C30, symBinAddr: 0x100005E94, symSize: 0x24 }
  - { offsetInCU: 0x7A76, offset: 0x7A76, size: 0x8, addend: 0x0, symName: __ZNSt3__119__hash_map_iteratorINS_15__hash_iteratorIPNS_11__hash_nodeINS_17__hash_value_typeIiP4NodeEEPvEEEEEC2B7v160006ESA_, symObjAddr: 0x1C54, symBinAddr: 0x100005EB8, symSize: 0x20 }
  - { offsetInCU: 0x7AC1, offset: 0x7AC1, size: 0x8, addend: 0x0, symName: __ZNSt3__112__hash_tableINS_17__hash_value_typeIiP4NodeEENS_22__unordered_map_hasherIiS4_NS_4hashIiEENS_8equal_toIiEELb1EEENS_21__unordered_map_equalIiS4_S9_S7_Lb1EEENS_9allocatorIS4_EEE25__emplace_unique_key_argsIiJRKNS_21piecewise_construct_tENS_5tupleIJRKiEEENSK_IJEEEEEENS_4pairINS_15__hash_iteratorIPNS_11__hash_nodeIS4_PvEEEEbEERKT_DpOT0_, symObjAddr: 0x1C74, symBinAddr: 0x100005ED8, symSize: 0x4A0 }
  - { offsetInCU: 0x7BC8, offset: 0x7BC8, size: 0x8, addend: 0x0, symName: __ZNKSt3__115__hash_iteratorIPNS_11__hash_nodeINS_17__hash_value_typeIiP4NodeEEPvEEEptB7v160006Ev, symObjAddr: 0x2144, symBinAddr: 0x1000063A8, symSize: 0x30 }
  - { offsetInCU: 0x7BEC, offset: 0x7BEC, size: 0x8, addend: 0x0, symName: __ZNSt3__112__hash_tableINS_17__hash_value_typeIiP4NodeEENS_22__unordered_map_hasherIiS4_NS_4hashIiEENS_8equal_toIiEELb1EEENS_21__unordered_map_equalIiS4_S9_S7_Lb1EEENS_9allocatorIS4_EEE21__construct_node_hashIRKNS_21piecewise_construct_tEJNS_5tupleIJRKiEEENSK_IJEEEEEENS_10unique_ptrINS_11__hash_nodeIS4_PvEENS_22__hash_node_destructorINSD_ISS_EEEEEEmOT_DpOT0_, symObjAddr: 0x2174, symBinAddr: 0x1000063D8, symSize: 0x150 }
  - { offsetInCU: 0x7C86, offset: 0x7C86, size: 0x8, addend: 0x0, symName: __ZNSt3__112__hash_tableINS_17__hash_value_typeIiP4NodeEENS_22__unordered_map_hasherIiS4_NS_4hashIiEENS_8equal_toIiEELb1EEENS_21__unordered_map_equalIiS4_S9_S7_Lb1EEENS_9allocatorIS4_EEE4sizeB7v160006Ev, symObjAddr: 0x22C4, symBinAddr: 0x100006528, symSize: 0x28 }
  - { offsetInCU: 0x7CAA, offset: 0x7CAA, size: 0x8, addend: 0x0, symName: __ZNSt3__112__hash_tableINS_17__hash_value_typeIiP4NodeEENS_22__unordered_map_hasherIiS4_NS_4hashIiEENS_8equal_toIiEELb1EEENS_21__unordered_map_equalIiS4_S9_S7_Lb1EEENS_9allocatorIS4_EEE15max_load_factorB7v160006Ev, symObjAddr: 0x22EC, symBinAddr: 0x100006550, symSize: 0x28 }
  - { offsetInCU: 0x7CCE, offset: 0x7CCE, size: 0x8, addend: 0x0, symName: __ZNSt3__112__hash_tableINS_17__hash_value_typeIiP4NodeEENS_22__unordered_map_hasherIiS4_NS_4hashIiEENS_8equal_toIiEELb1EEENS_21__unordered_map_equalIiS4_S9_S7_Lb1EEENS_9allocatorIS4_EEE15__rehash_uniqueB7v160006Em, symObjAddr: 0x2314, symBinAddr: 0x100006578, symSize: 0x2C }
  - { offsetInCU: 0x7D01, offset: 0x7D01, size: 0x8, addend: 0x0, symName: __Z4ceilB7v160006f, symObjAddr: 0x23BC, symBinAddr: 0x100006620, symSize: 0x18 }
  - { offsetInCU: 0x7D2F, offset: 0x7D2F, size: 0x8, addend: 0x0, symName: __ZNSt3__116__hash_node_baseIPNS_11__hash_nodeINS_17__hash_value_typeIiP4NodeEEPvEEE5__ptrB7v160006Ev, symObjAddr: 0x23D4, symBinAddr: 0x100006638, symSize: 0x24 }
  - { offsetInCU: 0x7D53, offset: 0x7D53, size: 0x8, addend: 0x0, symName: __ZNKSt3__110unique_ptrINS_11__hash_nodeINS_17__hash_value_typeIiP4NodeEEPvEENS_22__hash_node_destructorINS_9allocatorIS7_EEEEEptB7v160006Ev, symObjAddr: 0x23F8, symBinAddr: 0x10000665C, symSize: 0x28 }
  - { offsetInCU: 0x7D77, offset: 0x7D77, size: 0x8, addend: 0x0, symName: __ZNKSt3__110unique_ptrINS_11__hash_nodeINS_17__hash_value_typeIiP4NodeEEPvEENS_22__hash_node_destructorINS_9allocatorIS7_EEEEE3getB7v160006Ev, symObjAddr: 0x2420, symBinAddr: 0x100006684, symSize: 0x28 }
  - { offsetInCU: 0x7D9B, offset: 0x7D9B, size: 0x8, addend: 0x0, symName: __ZNSt3__110unique_ptrINS_11__hash_nodeINS_17__hash_value_typeIiP4NodeEEPvEENS_22__hash_node_destructorINS_9allocatorIS7_EEEEE7releaseB7v160006Ev, symObjAddr: 0x2448, symBinAddr: 0x1000066AC, symSize: 0x44 }
  - { offsetInCU: 0x7DCE, offset: 0x7DCE, size: 0x8, addend: 0x0, symName: __ZNSt3__110unique_ptrINS_11__hash_nodeINS_17__hash_value_typeIiP4NodeEEPvEENS_22__hash_node_destructorINS_9allocatorIS7_EEEEED1B7v160006Ev, symObjAddr: 0x248C, symBinAddr: 0x1000066F0, symSize: 0x2C }
  - { offsetInCU: 0x7E00, offset: 0x7E00, size: 0x8, addend: 0x0, symName: __ZNSt3__14pairINS_15__hash_iteratorIPNS_11__hash_nodeINS_17__hash_value_typeIiP4NodeEEPvEEEEbEC1B7v160006ISA_RbLS7_0EEEOT_OT0_, symObjAddr: 0x24B8, symBinAddr: 0x10000671C, symSize: 0x3C }
  - { offsetInCU: 0x7E5C, offset: 0x7E5C, size: 0x8, addend: 0x0, symName: __ZNSt3__116allocator_traitsINS_9allocatorINS_11__hash_nodeINS_17__hash_value_typeIiP4NodeEEPvEEEEE8allocateB7v160006ERS9_m, symObjAddr: 0x24F4, symBinAddr: 0x100006758, symSize: 0x2C }
  - { offsetInCU: 0x7E8E, offset: 0x7E8E, size: 0x8, addend: 0x0, symName: __ZNSt3__122__hash_node_destructorINS_9allocatorINS_11__hash_nodeINS_17__hash_value_typeIiP4NodeEEPvEEEEEC1B7v160006ERS9_b, symObjAddr: 0x2520, symBinAddr: 0x100006784, symSize: 0x48 }
  - { offsetInCU: 0x7ED9, offset: 0x7ED9, size: 0x8, addend: 0x0, symName: __ZNSt3__110unique_ptrINS_11__hash_nodeINS_17__hash_value_typeIiP4NodeEEPvEENS_22__hash_node_destructorINS_9allocatorIS7_EEEEEC1B7v160006ILb1EvEEPS7_NS_16__dependent_typeINS_27__unique_ptr_deleter_sfinaeISB_EEXT_EE20__good_rval_ref_typeE, symObjAddr: 0x2568, symBinAddr: 0x1000067CC, symSize: 0x3C }
  - { offsetInCU: 0x7F28, offset: 0x7F28, size: 0x8, addend: 0x0, symName: __ZNSt3__116allocator_traitsINS_9allocatorINS_11__hash_nodeINS_17__hash_value_typeIiP4NodeEEPvEEEEE9constructB7v160006INS_4pairIKiS5_EEJRKNS_21piecewise_construct_tENS_5tupleIJRSD_EEENSI_IJEEEEvvEEvRS9_PT_DpOT0_, symObjAddr: 0x25A4, symBinAddr: 0x100006808, symSize: 0x40 }
  - { offsetInCU: 0x7FA3, offset: 0x7FA3, size: 0x8, addend: 0x0, symName: __ZNSt3__110unique_ptrINS_11__hash_nodeINS_17__hash_value_typeIiP4NodeEEPvEENS_22__hash_node_destructorINS_9allocatorIS7_EEEEE11get_deleterB7v160006Ev, symObjAddr: 0x25E4, symBinAddr: 0x100006848, symSize: 0x24 }
  - { offsetInCU: 0x7FC7, offset: 0x7FC7, size: 0x8, addend: 0x0, symName: __ZNSt3__19allocatorINS_11__hash_nodeINS_17__hash_value_typeIiP4NodeEEPvEEE8allocateB7v160006Em, symObjAddr: 0x2608, symBinAddr: 0x10000686C, symSize: 0x58 }
  - { offsetInCU: 0x8003, offset: 0x8003, size: 0x8, addend: 0x0, symName: __ZNSt3__116allocator_traitsINS_9allocatorINS_11__hash_nodeINS_17__hash_value_typeIiP4NodeEEPvEEEEE8max_sizeB7v160006IS9_vvEEmRKS9_, symObjAddr: 0x2660, symBinAddr: 0x1000068C4, symSize: 0x28 }
  - { offsetInCU: 0x802E, offset: 0x802E, size: 0x8, addend: 0x0, symName: __ZNSt3__114numeric_limitsImE3maxB7v160006Ev, symObjAddr: 0x271C, symBinAddr: 0x100006980, symSize: 0x14 }
  - { offsetInCU: 0x8042, offset: 0x8042, size: 0x8, addend: 0x0, symName: __ZNSt3__123__libcpp_numeric_limitsImLb1EE3maxB7v160006Ev, symObjAddr: 0x2730, symBinAddr: 0x100006994, symSize: 0x8 }
  - { offsetInCU: 0x8055, offset: 0x8055, size: 0x8, addend: 0x0, symName: __ZNSt3__122__hash_node_destructorINS_9allocatorINS_11__hash_nodeINS_17__hash_value_typeIiP4NodeEEPvEEEEEC2B7v160006ERS9_b, symObjAddr: 0x2788, symBinAddr: 0x1000069EC, symSize: 0x38 }
  - { offsetInCU: 0x809B, offset: 0x809B, size: 0x8, addend: 0x0, symName: __ZNSt3__110unique_ptrINS_11__hash_nodeINS_17__hash_value_typeIiP4NodeEEPvEENS_22__hash_node_destructorINS_9allocatorIS7_EEEEEC2B7v160006ILb1EvEEPS7_NS_16__dependent_typeINS_27__unique_ptr_deleter_sfinaeISB_EEXT_EE20__good_rval_ref_typeE, symObjAddr: 0x27C0, symBinAddr: 0x100006A24, symSize: 0x48 }
  - { offsetInCU: 0x80EA, offset: 0x80EA, size: 0x8, addend: 0x0, symName: __ZNSt3__117__compressed_pairIPNS_11__hash_nodeINS_17__hash_value_typeIiP4NodeEEPvEENS_22__hash_node_destructorINS_9allocatorIS7_EEEEEC1B7v160006IRS8_SC_EEOT_OT0_, symObjAddr: 0x2808, symBinAddr: 0x100006A6C, symSize: 0x3C }
  - { offsetInCU: 0x8140, offset: 0x8140, size: 0x8, addend: 0x0, symName: __ZNSt3__117__compressed_pairIPNS_11__hash_nodeINS_17__hash_value_typeIiP4NodeEEPvEENS_22__hash_node_destructorINS_9allocatorIS7_EEEEEC2B7v160006IRS8_SC_EEOT_OT0_, symObjAddr: 0x2844, symBinAddr: 0x100006AA8, symSize: 0x48 }
  - { offsetInCU: 0x8196, offset: 0x8196, size: 0x8, addend: 0x0, symName: __ZNSt3__122__compressed_pair_elemIPNS_11__hash_nodeINS_17__hash_value_typeIiP4NodeEEPvEELi0ELb0EEC2B7v160006IRS8_vEEOT_, symObjAddr: 0x288C, symBinAddr: 0x100006AF0, symSize: 0x24 }
  - { offsetInCU: 0x81D6, offset: 0x81D6, size: 0x8, addend: 0x0, symName: __ZNSt3__122__compressed_pair_elemINS_22__hash_node_destructorINS_9allocatorINS_11__hash_nodeINS_17__hash_value_typeIiP4NodeEEPvEEEEEELi1ELb0EEC2B7v160006ISB_vEEOT_, symObjAddr: 0x28B0, symBinAddr: 0x100006B14, symSize: 0x24 }
  - { offsetInCU: 0x8216, offset: 0x8216, size: 0x8, addend: 0x0, symName: __ZNSt3__14pairIKiP4NodeEC1B7v160006IJRS1_EJEEENS_21piecewise_construct_tENS_5tupleIJDpT_EEENS8_IJDpT0_EEE, symObjAddr: 0x2924, symBinAddr: 0x100006B88, symSize: 0x44 }
  - { offsetInCU: 0x827C, offset: 0x827C, size: 0x8, addend: 0x0, symName: __ZNSt3__14pairIKiP4NodeEC1B7v160006IJRS1_EJEJLm0EEJEEENS_21piecewise_construct_tERNS_5tupleIJDpT_EEERNS8_IJDpT0_EEENS_15__tuple_indicesIJXspT1_EEEENSH_IJXspT2_EEEE, symObjAddr: 0x2968, symBinAddr: 0x100006BCC, symSize: 0x3C }
  - { offsetInCU: 0x8308, offset: 0x8308, size: 0x8, addend: 0x0, symName: __ZNSt3__14pairIKiP4NodeEC2B7v160006IJRS1_EJEJLm0EEJEEENS_21piecewise_construct_tERNS_5tupleIJDpT_EEERNS8_IJDpT0_EEENS_15__tuple_indicesIJXspT1_EEEENSH_IJXspT2_EEEE, symObjAddr: 0x29A4, symBinAddr: 0x100006C08, symSize: 0x48 }
  - { offsetInCU: 0x8393, offset: 0x8393, size: 0x8, addend: 0x0, symName: __ZNSt3__112__tuple_leafILm0ERKiLb0EE3getB7v160006Ev, symObjAddr: 0x2A10, symBinAddr: 0x100006C74, symSize: 0x18 }
  - { offsetInCU: 0x83B7, offset: 0x83B7, size: 0x8, addend: 0x0, symName: __ZNSt3__117__compressed_pairIPNS_11__hash_nodeINS_17__hash_value_typeIiP4NodeEEPvEENS_22__hash_node_destructorINS_9allocatorIS7_EEEEE6secondB7v160006Ev, symObjAddr: 0x2A28, symBinAddr: 0x100006C8C, symSize: 0x28 }
  - { offsetInCU: 0x83DB, offset: 0x83DB, size: 0x8, addend: 0x0, symName: __ZNSt3__122__compressed_pair_elemINS_22__hash_node_destructorINS_9allocatorINS_11__hash_nodeINS_17__hash_value_typeIiP4NodeEEPvEEEEEELi1ELb0EE5__getB7v160006Ev, symObjAddr: 0x2A50, symBinAddr: 0x100006CB4, symSize: 0x14 }
  - { offsetInCU: 0x83FF, offset: 0x83FF, size: 0x8, addend: 0x0, symName: __ZNSt3__117__compressed_pairImNS_22__unordered_map_hasherIiNS_17__hash_value_typeIiP4NodeEENS_4hashIiEENS_8equal_toIiEELb1EEEE5firstB7v160006Ev, symObjAddr: 0x2A64, symBinAddr: 0x100006CC8, symSize: 0x24 }
  - { offsetInCU: 0x8423, offset: 0x8423, size: 0x8, addend: 0x0, symName: __ZNSt3__117__compressed_pairIfNS_21__unordered_map_equalIiNS_17__hash_value_typeIiP4NodeEENS_8equal_toIiEENS_4hashIiEELb1EEEE5firstB7v160006Ev, symObjAddr: 0x2A88, symBinAddr: 0x100006CEC, symSize: 0x24 }
  - { offsetInCU: 0x8447, offset: 0x8447, size: 0x8, addend: 0x0, symName: __ZNSt3__122__compressed_pair_elemIfLi0ELb0EE5__getB7v160006Ev, symObjAddr: 0x2AAC, symBinAddr: 0x100006D10, symSize: 0x14 }
  - { offsetInCU: 0x846B, offset: 0x846B, size: 0x8, addend: 0x0, symName: __ZNSt3__112__hash_tableINS_17__hash_value_typeIiP4NodeEENS_22__unordered_map_hasherIiS4_NS_4hashIiEENS_8equal_toIiEELb1EEENS_21__unordered_map_equalIiS4_S9_S7_Lb1EEENS_9allocatorIS4_EEE8__rehashILb1EEEvm, symObjAddr: 0x2AC0, symBinAddr: 0x100006D24, symSize: 0x1A8 }
  - { offsetInCU: 0x84B9, offset: 0x84B9, size: 0x8, addend: 0x0, symName: __ZNSt3__112__hash_tableINS_17__hash_value_typeIiP4NodeEENS_22__unordered_map_hasherIiS4_NS_4hashIiEENS_8equal_toIiEELb1EEENS_21__unordered_map_equalIiS4_S9_S7_Lb1EEENS_9allocatorIS4_EEE11__do_rehashILb1EEEvm, symObjAddr: 0x2C68, symBinAddr: 0x100006ECC, symSize: 0x290 }
  - { offsetInCU: 0x859A, offset: 0x859A, size: 0x8, addend: 0x0, symName: __ZNSt3__110unique_ptrIA_PNS_16__hash_node_baseIPNS_11__hash_nodeINS_17__hash_value_typeIiP4NodeEEPvEEEENS_25__bucket_list_deallocatorINS_9allocatorISB_EEEEE11get_deleterB7v160006Ev, symObjAddr: 0x2F74, symBinAddr: 0x1000071D8, symSize: 0x24 }
  - { offsetInCU: 0x85BE, offset: 0x85BE, size: 0x8, addend: 0x0, symName: __ZNSt3__110unique_ptrIA_PNS_16__hash_node_baseIPNS_11__hash_nodeINS_17__hash_value_typeIiP4NodeEEPvEEEENS_25__bucket_list_deallocatorINS_9allocatorISB_EEEEE5resetB7v160006IPSB_EENS_9enable_ifIXsr28_CheckArrayPointerConversionIT_EE5valueEvE4typeESL_, symObjAddr: 0x2F98, symBinAddr: 0x1000071FC, symSize: 0x78 }
  - { offsetInCU: 0x8609, offset: 0x8609, size: 0x8, addend: 0x0, symName: __ZNSt3__116allocator_traitsINS_9allocatorIPNS_16__hash_node_baseIPNS_11__hash_nodeINS_17__hash_value_typeIiP4NodeEEPvEEEEEEE8allocateB7v160006ERSD_m, symObjAddr: 0x3010, symBinAddr: 0x100007274, symSize: 0x2C }
  - { offsetInCU: 0x863B, offset: 0x863B, size: 0x8, addend: 0x0, symName: __ZNSt3__19allocatorIPNS_16__hash_node_baseIPNS_11__hash_nodeINS_17__hash_value_typeIiP4NodeEEPvEEEEE8allocateB7v160006Em, symObjAddr: 0x303C, symBinAddr: 0x1000072A0, symSize: 0x58 }
  - { offsetInCU: 0x8677, offset: 0x8677, size: 0x8, addend: 0x0, symName: __ZNSt3__116allocator_traitsINS_9allocatorIPNS_16__hash_node_baseIPNS_11__hash_nodeINS_17__hash_value_typeIiP4NodeEEPvEEEEEEE8max_sizeB7v160006ISD_vvEEmRKSD_, symObjAddr: 0x3094, symBinAddr: 0x1000072F8, symSize: 0x28 }
  - { offsetInCU: 0x86AB, offset: 0x86AB, size: 0x8, addend: 0x0, symName: __ZNKSt3__16__lessImmEclB7v160006ERKmS3_, symObjAddr: 0x312C, symBinAddr: 0x100007390, symSize: 0x34 }
  - { offsetInCU: 0x86EB, offset: 0x86EB, size: 0x8, addend: 0x0, symName: __ZNKSt3__117__compressed_pairIPNS_11__hash_nodeINS_17__hash_value_typeIiP4NodeEEPvEENS_22__hash_node_destructorINS_9allocatorIS7_EEEEE5firstB7v160006Ev, symObjAddr: 0x3160, symBinAddr: 0x1000073C4, symSize: 0x24 }
  - { offsetInCU: 0x870F, offset: 0x870F, size: 0x8, addend: 0x0, symName: __ZNKSt3__122__compressed_pair_elemIPNS_11__hash_nodeINS_17__hash_value_typeIiP4NodeEEPvEELi0ELb0EE5__getB7v160006Ev, symObjAddr: 0x3184, symBinAddr: 0x1000073E8, symSize: 0x14 }
  - { offsetInCU: 0x8733, offset: 0x8733, size: 0x8, addend: 0x0, symName: __ZNSt3__117__compressed_pairIPNS_11__hash_nodeINS_17__hash_value_typeIiP4NodeEEPvEENS_22__hash_node_destructorINS_9allocatorIS7_EEEEE5firstB7v160006Ev, symObjAddr: 0x3198, symBinAddr: 0x1000073FC, symSize: 0x24 }
  - { offsetInCU: 0x8757, offset: 0x8757, size: 0x8, addend: 0x0, symName: __ZNSt3__122__compressed_pair_elemIPNS_11__hash_nodeINS_17__hash_value_typeIiP4NodeEEPvEELi0ELb0EE5__getB7v160006Ev, symObjAddr: 0x31BC, symBinAddr: 0x100007420, symSize: 0x14 }
  - { offsetInCU: 0x877B, offset: 0x877B, size: 0x8, addend: 0x0, symName: __ZNSt3__110unique_ptrINS_11__hash_nodeINS_17__hash_value_typeIiP4NodeEEPvEENS_22__hash_node_destructorINS_9allocatorIS7_EEEEED2B7v160006Ev, symObjAddr: 0x31D0, symBinAddr: 0x100007434, symSize: 0x30 }
  - { offsetInCU: 0x87A3, offset: 0x87A3, size: 0x8, addend: 0x0, symName: __ZNSt3__110unique_ptrINS_11__hash_nodeINS_17__hash_value_typeIiP4NodeEEPvEENS_22__hash_node_destructorINS_9allocatorIS7_EEEEE5resetB7v160006EPS7_, symObjAddr: 0x3200, symBinAddr: 0x100007464, symSize: 0x78 }
  - { offsetInCU: 0x87E5, offset: 0x87E5, size: 0x8, addend: 0x0, symName: __ZNSt3__122__hash_node_destructorINS_9allocatorINS_11__hash_nodeINS_17__hash_value_typeIiP4NodeEEPvEEEEEclB7v160006EPS8_, symObjAddr: 0x3278, symBinAddr: 0x1000074DC, symSize: 0x98 }
  - { offsetInCU: 0x8818, offset: 0x8818, size: 0x8, addend: 0x0, symName: __ZNSt3__14pairINS_15__hash_iteratorIPNS_11__hash_nodeINS_17__hash_value_typeIiP4NodeEEPvEEEEbEC2B7v160006ISA_RbLS7_0EEEOT_OT0_, symObjAddr: 0x3310, symBinAddr: 0x100007574, symSize: 0x38 }
  - { offsetInCU: 0x8874, offset: 0x8874, size: 0x8, addend: 0x0, symName: __ZNSt3__15tupleIJRKiEEC1B7v160006INS_4_AndELi0EEES2_, symObjAddr: 0x3348, symBinAddr: 0x1000075AC, symSize: 0x34 }
  - { offsetInCU: 0x88BA, offset: 0x88BA, size: 0x8, addend: 0x0, symName: __ZNSt3__15tupleIJRKiEEC2B7v160006INS_4_AndELi0EEES2_, symObjAddr: 0x337C, symBinAddr: 0x1000075E0, symSize: 0x34 }
  - { offsetInCU: 0x8900, offset: 0x8900, size: 0x8, addend: 0x0, symName: __ZNSt3__112__tuple_implINS_15__tuple_indicesIJLm0EEEEJRKiEEC1B7v160006IJLm0EEJS4_EJEJEJS4_EEENS1_IJXspT_EEEENS_13__tuple_typesIJDpT0_EEENS1_IJXspT1_EEEENS8_IJDpT2_EEEDpOT3_, symObjAddr: 0x33B0, symBinAddr: 0x100007614, symSize: 0x34 }
  - { offsetInCU: 0x898F, offset: 0x898F, size: 0x8, addend: 0x0, symName: __ZNSt3__112__tuple_implINS_15__tuple_indicesIJLm0EEEEJRKiEEC2B7v160006IJLm0EEJS4_EJEJEJS4_EEENS1_IJXspT_EEEENS_13__tuple_typesIJDpT0_EEENS1_IJXspT1_EEEENS8_IJDpT2_EEEDpOT3_, symObjAddr: 0x33E4, symBinAddr: 0x100007648, symSize: 0x34 }
  - { offsetInCU: 0x8A1E, offset: 0x8A1E, size: 0x8, addend: 0x0, symName: __ZNSt3__112__tuple_leafILm0ERKiLb0EEC2B7v160006IS2_vEEOT_, symObjAddr: 0x3418, symBinAddr: 0x10000767C, symSize: 0x20 }
  - { offsetInCU: 0x8A5F, offset: 0x8A5F, size: 0x8, addend: 0x0, symName: __ZNSt3__114pointer_traitsIPNS_17__hash_value_typeIiP4NodeEEE10pointer_toB7v160006ERS4_, symObjAddr: 0x3438, symBinAddr: 0x10000769C, symSize: 0x14 }
  - { offsetInCU: 0x8A81, offset: 0x8A81, size: 0x8, addend: 0x0, symName: __ZNSt3__112__hash_tableINS_17__hash_value_typeIiP4NodeEENS_22__unordered_map_hasherIiS4_NS_4hashIiEENS_8equal_toIiEELb1EEENS_21__unordered_map_equalIiS4_S9_S7_Lb1EEENS_9allocatorIS4_EEE14__erase_uniqueIiEEmRKT_, symObjAddr: 0x344C, symBinAddr: 0x1000076B0, symSize: 0x98 }
  - { offsetInCU: 0x8ACE, offset: 0x8ACE, size: 0x8, addend: 0x0, symName: __ZNSt3__112__hash_tableINS_17__hash_value_typeIiP4NodeEENS_22__unordered_map_hasherIiS4_NS_4hashIiEENS_8equal_toIiEELb1EEENS_21__unordered_map_equalIiS4_S9_S7_Lb1EEENS_9allocatorIS4_EEE5eraseENS_21__hash_const_iteratorIPNS_11__hash_nodeIS4_PvEEEE, symObjAddr: 0x34E4, symBinAddr: 0x100007748, symSize: 0x70 }
  - { offsetInCU: 0x8B21, offset: 0x8B21, size: 0x8, addend: 0x0, symName: __ZNSt3__121__hash_const_iteratorIPNS_11__hash_nodeINS_17__hash_value_typeIiP4NodeEEPvEEEC1B7v160006ERKNS_15__hash_iteratorIS8_EE, symObjAddr: 0x3554, symBinAddr: 0x1000077B8, symSize: 0x34 }
  - { offsetInCU: 0x8B58, offset: 0x8B58, size: 0x8, addend: 0x0, symName: __ZNSt3__115__hash_iteratorIPNS_11__hash_nodeINS_17__hash_value_typeIiP4NodeEEPvEEEppB7v160006Ev, symObjAddr: 0x3588, symBinAddr: 0x1000077EC, symSize: 0x20 }
  - { offsetInCU: 0x8B7C, offset: 0x8B7C, size: 0x8, addend: 0x0, symName: __ZNSt3__112__hash_tableINS_17__hash_value_typeIiP4NodeEENS_22__unordered_map_hasherIiS4_NS_4hashIiEENS_8equal_toIiEELb1EEENS_21__unordered_map_equalIiS4_S9_S7_Lb1EEENS_9allocatorIS4_EEE6removeENS_21__hash_const_iteratorIPNS_11__hash_nodeIS4_PvEEEE, symObjAddr: 0x35A8, symBinAddr: 0x10000780C, symSize: 0x220 }
  - { offsetInCU: 0x8C0B, offset: 0x8C0B, size: 0x8, addend: 0x0, symName: __ZNSt3__121__hash_const_iteratorIPNS_11__hash_nodeINS_17__hash_value_typeIiP4NodeEEPvEEEC2B7v160006ERKNS_15__hash_iteratorIS8_EE, symObjAddr: 0x37C8, symBinAddr: 0x100007A2C, symSize: 0x24 }
  - { offsetInCU: 0x8C42, offset: 0x8C42, size: 0x8, addend: 0x0, symName: __ZN8LRUCacheD2Ev, symObjAddr: 0x37EC, symBinAddr: 0x100007A50, symSize: 0x30 }
...
